(dp0
(I0
I0
I0
I0
I16
I39
I0
tp1
I-100
s(I0
I0
I0
I0
I16
I44
I0
tp2
I-100
s(I0
I0
I0
I0
I16
I49
I0
tp3
I-100
s(I0
I0
I0
I0
I14
I43
I9
tp4
I-100
s(I0
I0
I0
I0
I7
I54
I9
tp5
I-100
s(I0
I0
I0
I0
I16
I40
I9
tp6
I-100
s(I0
I0
I0
I0
I16
I54
I9
tp7
I-100
s(I0
I0
I0
I0
I7
I6
I0
tp8
I-100
s(I0
I0
I0
I0
I7
I57
I0
tp9
I-100
s(I0
I0
I0
I0
I12
I45
I9
tp10
I-100
s(I0
I0
I0
I0
I14
I40
I9
tp11
I-100
s(I0
I0
I0
I0
I16
I5
I9
tp12
I-100
s(I0
I0
I0
I0
I9
I38
I9
tp13
I-100
s(I0
I0
I0
I0
I12
I46
I9
tp14
I-100
s(I0
I0
I0
I0
I16
I55
I9
tp15
I-100
s(I0
I0
I0
I0
I16
I51
I0
tp16
I-100
s(I0
I0
I0
I0
I11
I38
I9
tp17
I-100
s(I0
I0
I0
I0
I13
I39
I9
tp18
I-100
s(I0
I0
I0
I0
I16
I42
I9
tp19
I-100
s(I0
I0
I0
I0
I13
I51
I9
tp20
I-100
s(I0
I0
I0
I1
I7
I2
I3
tp21
I-100
s(I0
I0
I0
I0
I10
I48
I9
tp22
I-100
s(I0
I0
I0
I0
I12
I52
I9
tp23
I-100
s(I0
I0
I0
I0
I13
I38
I9
tp24
I-100
s(I0
I0
I0
I0
I8
I38
I9
tp25
I-100
s(I0
I0
I0
I0
I13
I50
I9
tp26
I-100
s(I0
I0
I0
I0
I8
I48
I9
tp27
I-100
s(I0
I0
I0
I0
I9
I39
I9
tp28
I-100
s(I0
I0
I0
I0
I16
I6
I9
tp29
I-100
s(I0
I0
I0
I0
I6
I2
I0
tp30
I-100
s(I0
I0
I0
I0
I16
I53
I0
tp31
I-100
s(I0
I0
I0
I0
I9
I53
I0
tp32
I-100
s(I0
I0
I0
I0
I15
I39
I9
tp33
I-100
s(I0
I0
I0
I0
I14
I41
I9
tp34
I-100
s(I0
I0
I0
I0
I9
I57
I9
tp35
I-100
s(I0
I0
I0
I0
I9
I54
I9
tp36
I-100
s(I0
I0
I0
I0
I12
I55
I9
tp37
I-100
s(I0
I0
I0
I0
I12
I53
I9
tp38
I-100
s(I0
I0
I0
I0
I12
I47
I9
tp39
I-100
s(I0
I0
I0
I0
I14
I46
I9
tp40
I-100
s(I0
I0
I0
I0
I10
I44
I9
tp41
I-100
s(I0
I0
I0
I0
I16
I43
I0
tp42
I-100
s(I0
I0
I0
I0
I16
I19
I9
tp43
I-100
s(I0
I0
I0
I0
I12
I48
I9
tp44
I-100
s(I0
I0
I0
I0
I16
I17
I9
tp45
I-100
s(I0
I0
I0
I0
I12
I54
I9
tp46
I-100
s(I0
I0
I0
I0
I15
I38
I9
tp47
I-100
s(I0
I0
I0
I0
I16
I43
I9
tp48
I-100
s(I0
I0
I0
I0
I12
I40
I9
tp49
I-100
s(I0
I0
I0
I0
I8
I50
I9
tp50
I-100
s(I0
I0
I0
I0
I16
I20
I9
tp51
I-100
s(I0
I0
I0
I0
I16
I60
I0
tp52
I-100
s(I0
I0
I0
I0
I13
I43
I9
tp53
I-100
s(I0
I0
I0
I0
I14
I47
I9
tp54
I-100
s(I0
I0
I0
I0
I16
I46
I9
tp55
I-100
s(I0
I0
I0
I0
I16
I44
I9
tp56
I-100
s(I0
I0
I0
I0
I16
I56
I9
tp57
I-100
s(I0
I0
I0
I1
I16
I45
I9
tp58
I-100
s(I0
I0
I0
I0
I12
I43
I9
tp59
I-100
s(I0
I0
I0
I0
I11
I45
I9
tp60
I-100
s(I0
I0
I0
I0
I12
I41
I9
tp61
I-100
s(I0
I0
I0
I0
I14
I56
I9
tp62
I-100
s(I0
I0
I0
I0
I16
I21
I9
tp63
I-100
s(I0
I0
I0
I0
I16
I47
I9
tp64
I-100
s(I0
I0
I0
I0
I8
I40
I9
tp65
I-100
s(I0
I0
I0
I0
I16
I45
I9
tp66
I-100
s(I0
I0
I0
I0
I13
I48
I9
tp67
I-100
s(I0
I0
I0
I0
I16
I57
I9
tp68
I-100
s(I0
I0
I0
I0
I16
I36
I0
tp69
I-100
s(I0
I0
I0
I0
I16
I41
I0
tp70
I-100
s(I0
I0
I0
I0
I11
I46
I9
tp71
I-100
s(I0
I0
I0
I0
I13
I47
I9
tp72
I-100
s(I0
I0
I0
I0
I11
I44
I9
tp73
I-100
s(I0
I0
I0
I0
I13
I41
I9
tp74
I-100
s(I0
I0
I0
I0
I14
I39
I9
tp75
I-100
s(I0
I0
I0
I0
I15
I41
I9
tp76
I-100
s(I0
I0
I0
I0
I13
I55
I9
tp77
I-100
s(I0
I0
I0
I0
I9
I53
I9
tp78
I-100
s(I0
I0
I0
I0
I11
I41
I9
tp79
I-100
s(I0
I0
I0
I0
I8
I41
I9
tp80
I-100
s(I0
I0
I0
I0
I11
I47
I9
tp81
I-100
s(I0
I0
I0
I0
I8
I51
I9
tp82
I-100
s(I0
I0
I0
I0
I13
I46
I9
tp83
I-100
s(I0
I0
I0
I0
I12
I50
I9
tp84
I-100
s(I0
I0
I0
I0
I15
I42
I9
tp85
I-100
s(I0
I0
I0
I0
I8
I44
I9
tp86
I-100
s(I0
I0
I0
I0
I15
I40
I9
tp87
I-100
s(I0
I0
I0
I0
I13
I54
I9
tp88
I-100
s(I0
I0
I0
I0
I8
I52
I9
tp89
I-100
s(I0
I0
I0
I0
I16
I38
I0
tp90
I-100
s(I0
I0
I0
I0
I16
I8
I9
tp91
I-100
s(I0
I0
I0
I0
I11
I40
I9
tp92
I-100
s(I0
I0
I0
I0
I16
I22
I9
tp93
I-100
s(I0
I0
I0
I0
I16
I48
I0
tp94
I-100
s(I0
I0
I0
I0
I13
I5
I0
tp95
I-100
s(I0
I0
I0
I0
I10
I41
I9
tp96
I-100
s(I0
I0
I0
I0
I9
I47
I9
tp97
I-100
s(I0
I0
I0
I0
I7
I38
I9
tp98
I-100
s(I0
I0
I0
I0
I14
I47
I0
tp99
I-100
s(I0
I0
I0
I0
I12
I51
I9
tp100
I-100
s(I0
I0
I0
I0
I8
I45
I9
tp101
I-100
s(I0
I0
I0
I0
I14
I38
I9
tp102
I-100
s(I0
I0
I0
I0
I8
I55
I9
tp103
I-100
s(I0
I0
I0
I0
I16
I9
I9
tp104
I-100
s(I0
I0
I0
I0
I16
I23
I9
tp105
I-100
s(I0
I0
I0
I0
I15
I44
I9
tp106
I-100
s(I0
I0
I0
I0
I12
I38
I9
tp107
I-100
s(I0
I0
I0
I0
I16
I42
I0
tp108
I-100
s(I0
I0
I0
I0
I9
I56
I9
tp109
I-100
s(I0
I0
I0
I0
I16
I41
I9
tp110
I-100
s(I0
I0
I0
I0
I16
I10
I9
tp111
I-100
s(I0
I0
I0
I0
I16
I50
I0
tp112
I-100
s(I0
I0
I0
I0
I13
I45
I9
tp113
I-100
s(I0
I0
I0
I0
I9
I43
I9
tp114
I-100
s(I0
I0
I0
I0
I9
I45
I9
tp115
I-100
s(I0
I0
I0
I0
I7
I56
I0
tp116
I-100
s(I0
I0
I0
I1
I16
I16
I2
tp117
I-100
s(I0
I0
I0
I0
I16
I20
I0
tp118
I-100
s(I0
I0
I0
I0
I9
I48
I9
tp119
I-100
s(I0
I0
I0
I0
I9
I50
I9
tp120
I-100
s(I0
I0
I0
I0
I16
I47
I0
tp121
I-100
s(I0
I0
I0
I0
I11
I52
I9
tp122
I-100
s(I0
I0
I0
I0
I11
I42
I9
tp123
I-100
s(I0
I0
I0
I0
I15
I47
I9
tp124
I-100
s(I0
I0
I0
I0
I10
I39
I9
tp125
I-100
s(I0
I0
I0
I0
I7
I55
I0
tp126
I-100
s(I0
I0
I0
I0
I8
I47
I9
tp127
I-100
s(I0
I0
I0
I0
I14
I50
I9
tp128
I-100
s(I0
I0
I0
I0
I16
I11
I9
tp129
I-100
s(I0
I0
I0
I0
I9
I41
I9
tp130
I-100
s(I0
I0
I0
I0
I16
I2
I0
tp131
I-100
s(I0
I0
I0
I1
I16
I12
I9
tp132
I-100
s(I0
I0
I0
I0
I16
I14
I9
tp133
I-100
s(I0
I0
I0
I0
I16
I12
I9
tp134
I-100
s(I0
I0
I0
I0
I16
I54
I0
tp135
I-100
s(I0
I0
I0
I0
I15
I51
I9
tp136
I-100
s(I0
I0
I0
I1
I16
I12
I5
tp137
I-100
s(I0
I0
I0
I0
I16
I24
I9
tp138
I-100
s(I0
I0
I0
I0
I16
I38
I9
tp139
I-100
s(I0
I0
I0
I0
I14
I49
I9
tp140
I-100
s(I0
I0
I0
I0
I14
I51
I9
tp141
I-100
s(I0
I0
I0
I0
I16
I48
I9
tp142
I-100
s(I0
I0
I0
I0
I14
I54
I9
tp143
I-100
s(I0
I0
I0
I0
I14
I48
I9
tp144
I-100
s(I0
I0
I0
I0
I16
I15
I9
tp145
I-100
s(I0
I0
I0
I1
I7
I60
I9
tp146
I-100
s(I0
I0
I0
I1
I0
I0
I0
tp147
I1000
s(I0
I0
I0
I0
I16
I39
I9
tp148
I-100
s(I0
I0
I0
I0
I7
I10
I0
tp149
I-100
s(I0
I0
I0
I0
I16
I51
I9
tp150
I-100
s(I0
I0
I0
I0
I16
I49
I9
tp151
I-100
s(I0
I0
I0
I1
I7
I54
I8
tp152
I-100
s(I0
I0
I0
I0
I16
I40
I0
tp153
I-100
s(I0
I0
I0
I0
I16
I52
I9
tp154
I-100
s(I0
I0
I0
I0
I16
I50
I9
tp155
I-100
s(I0
I0
I0
I0
I9
I40
I9
tp156
I-100
s(I0
I0
I0
I0
I11
I49
I9
tp157
I-100
s(I0
I0
I0
I0
I9
I55
I9
tp158
I-100
s(I0
I0
I0
I0
I15
I50
I9
tp159
I-100
s(I0
I0
I0
I0
I16
I6
I0
tp160
I-100
s(I0
I0
I0
I0
I16
I53
I9
tp161
I-100
s(I0
I0
I0
I0
I16
I37
I0
tp162
I-100
s(I0
I0
I0
I0
I11
I50
I9
tp163
I-100
s(I0
I0
I0
I0
I11
I48
I9
tp164
I-100
s(I0
I0
I0
I0
I15
I55
I9
tp165
I-100
s(I0
I0
I0
I0
I16
I52
I0
tp166
I-100
s(I0
I0
I0
I0
I10
I55
I9
tp167
I-100
s(I0
I0
I0
I0
I7
I48
I0
tp168
I-100
s(I0
I0
I0
I0
I7
I7
I0
tp169
I-100
s(I0
I0
I0
I0
I11
I39
I9
tp170
I-100
s(I0
I0
I0
I0
I14
I42
I9
tp171
I-100
s(I0
I0
I0
I0
I10
I50
I9
tp172
I-100
s(I0
I0
I0
I0
I10
I52
I9
tp173
I-100
s(I0
I0
I0
I0
I15
I54
I9
tp174
I-100
s(I0
I0
I0
I0
I16
I13
I0
tp175
I-100
s.