(dp0
(I0
I0
I0
I0
I10
I47
I0
tp1
I-100
s(I0
I0
I0
I0
I16
I11
I9
tp2
I-100
s(I0
I0
I0
I0
I16
I39
I0
tp3
I-100
s(I0
I0
I0
I0
I16
I48
I9
tp4
I-100
s(I0
I0
I0
I0
I16
I49
I0
tp5
I-100
s(I0
I0
I0
I0
I16
I43
I9
tp6
I-100
s(I0
I0
I0
I0
I12
I40
I9
tp7
I-100
s(I0
I0
I0
I0
I13
I45
I0
tp8
I-100
s(I0
I0
I0
I0
I8
I50
I9
tp9
I-100
s(I0
I0
I0
I0
I15
I45
I0
tp10
I-100
s(I0
I0
I0
I0
I16
I40
I9
tp11
I-100
s(I0
I0
I0
I0
I16
I54
I9
tp12
I-100
s(I0
I0
I0
I0
I16
I19
I9
tp13
I-100
s(I0
I0
I0
I0
I16
I55
I0
tp14
I-100
s(I0
I0
I0
I0
I12
I38
I9
tp15
I-100
s(I0
I0
I0
I0
I16
I15
I9
tp16
I-100
s(I0
I0
I0
I0
I14
I53
I9
tp17
I-100
s(I0
I0
I0
I0
I16
I13
I9
tp18
I-100
s(I0
I0
I0
I0
I16
I46
I9
tp19
I-100
s(I0
I0
I0
I0
I16
I55
I9
tp20
I-100
s(I0
I0
I0
I0
I10
I57
I0
tp21
I-100
s(I0
I0
I0
I0
I16
I45
I0
tp22
I-100
s(I0
I0
I0
I0
I16
I39
I9
tp23
I-100
s(I0
I0
I0
I0
I16
I56
I9
tp24
I-100
s(I0
I0
I0
I0
I14
I39
I9
tp25
I-100
s(I0
I0
I0
I0
I16
I51
I9
tp26
I-100
s(I0
I0
I0
I0
I16
I49
I9
tp27
I-100
s(I0
I0
I0
I0
I10
I56
I9
tp28
I-100
s(I0
I0
I0
I0
I16
I44
I9
tp29
I-100
s(I0
I0
I0
I0
I9
I51
I9
tp30
I-100
s(I0
I0
I0
I0
I16
I20
I0
tp31
I-100
s(I0
I0
I0
I0
I13
I41
I0
tp32
I-100
s(I0
I0
I0
I0
I12
I45
I0
tp33
I-100
s(I0
I0
I0
I0
I15
I41
I0
tp34
I-100
s(I0
I0
I0
I0
I16
I52
I9
tp35
I-100
s(I0
I0
I0
I0
I16
I46
I0
tp36
I-100
s(I0
I0
I0
I0
I16
I50
I9
tp37
I-100
s(I0
I0
I0
I0
I16
I47
I9
tp38
I-100
s(I0
I0
I0
I0
I16
I51
I0
tp39
I-100
s(I0
I0
I0
I0
I16
I45
I9
tp40
I-100
s(I0
I0
I0
I0
I11
I51
I9
tp41
I-100
s(I0
I0
I0
I0
I9
I55
I0
tp42
I-100
s(I0
I0
I0
I0
I16
I57
I9
tp43
I-100
s(I0
I0
I0
I0
I16
I38
I9
tp44
I-100
s(I0
I0
I0
I0
I13
I42
I9
tp45
I-100
s(I0
I0
I0
I0
I16
I41
I0
tp46
I-100
s(I0
I0
I0
I0
I13
I56
I9
tp47
I-100
s(I0
I0
I0
I0
I16
I5
I9
tp48
I-100
s(I0
I0
I0
I0
I15
I41
I9
tp49
I-100
s(I0
I0
I0
I0
I14
I40
I9
tp50
I-100
s(I0
I0
I0
I0
I11
I53
I0
tp51
I-100
s(I0
I0
I0
I0
I16
I47
I0
tp52
I-100
s(I0
I0
I0
I0
I16
I6
I0
tp53
I-100
s(I0
I0
I0
I0
I11
I42
I9
tp54
I-100
s(I0
I0
I0
I0
I16
I53
I9
tp55
I-100
s(I0
I0
I0
I0
I16
I57
I0
tp56
I-100
s(I0
I0
I0
I0
I16
I16
I0
tp57
I-100
s(I0
I0
I0
I0
I10
I39
I9
tp58
I-100
s(I0
I0
I0
I0
I13
I57
I9
tp59
I-100
s(I0
I0
I0
I0
I8
I41
I9
tp60
I-100
s(I0
I0
I0
I0
I16
I42
I0
tp61
I-100
s(I0
I0
I0
I0
I13
I51
I0
tp62
I-100
s(I0
I0
I0
I0
I11
I50
I9
tp63
I-100
s(I0
I0
I0
I0
I16
I56
I0
tp64
I-100
s(I0
I0
I0
I0
I11
I48
I9
tp65
I-100
s(I0
I0
I0
I0
I8
I54
I9
tp66
I-100
s(I0
I0
I0
I0
I16
I53
I0
tp67
I-100
s(I0
I0
I0
I0
I8
I43
I0
tp68
I-100
s(I0
I0
I0
I0
I9
I53
I0
tp69
I-100
s(I0
I0
I0
I0
I14
I51
I0
tp70
I-100
s(I0
I0
I0
I0
I15
I49
I0
tp71
I-100
s(I0
I0
I0
I0
I16
I43
I0
tp72
I-100
s(I0
I0
I0
I0
I16
I16
I9
tp73
I-100
s(I0
I0
I0
I0
I16
I48
I0
tp74
I-100
s(I0
I0
I0
I0
I14
I53
I0
tp75
I-100
s(I0
I0
I0
I0
I15
I55
I0
tp76
I-100
s(I0
I0
I0
I0
I11
I55
I0
tp77
I-100
s(I0
I0
I0
I0
I12
I56
I9
tp78
I-100
s(I0
I0
I0
I0
I16
I54
I0
tp79
I-100
s(I0
I0
I0
I0
I12
I57
I0
tp80
I-100
s(I0
I0
I0
I0
I16
I7
I9
tp81
I-100
s.