(dp0
(I62
I16
I6
I1
I61
I17
I6
tp1
I-100
s(I64
I117
I0
I0
I63
I118
I0
tp2
I-100
s(I3
I106
I9
I1
I2
I106
I8
tp3
I-100
s(I64
I0
I0
I0
I63
I1
I0
tp4
I-100
s(I58
I102
I5
I1
I57
I102
I4
tp5
I-100
s(I23
I109
I0
I0
I22
I109
I0
tp6
I-100
s(I57
I7
I2
I1
I57
I8
I1
tp7
I1000
s(I22
I77
I0
I1
I22
I77
I9
tp8
I-100
s(I38
I82
I0
I1
I37
I81
I9
tp9
I-100
s(I3
I115
I0
I0
I2
I113
I0
tp10
I-100
s(I30
I98
I9
I1
I29
I97
I9
tp11
I-100
s(I11
I28
I1
I1
I11
I29
I1
tp12
I-100
s(I57
I107
I4
I1
I57
I107
I4
tp13
I1000
s(I30
I102
I9
I0
I29
I101
I9
tp14
I-100
s(I60
I121
I5
I1
I60
I122
I5
tp15
I-100
s(I60
I12
I5
I1
I60
I13
I5
tp16
I-100
s(I38
I106
I0
I0
I37
I105
I0
tp17
I-100
s(I57
I114
I7
I1
I57
I114
I6
tp18
I1000
s(I10
I114
I0
I1
I9
I112
I9
tp19
I-100
s(I3
I90
I0
I0
I2
I93
I0
tp20
I-100
s(I3
I111
I0
I0
I2
I109
I0
tp21
I-100
s(I3
I98
I0
I1
I2
I97
I9
tp22
I-100
s(I3
I112
I0
I0
I3
I111
I0
tp23
I-100
s(I62
I8
I0
I0
I62
I9
I0
tp24
I-100
s(I3
I91
I0
I0
I3
I91
I0
tp25
I-100
s(I63
I93
I0
I0
I63
I92
I0
tp26
I-100
s(I3
I6
I7
I1
I3
I6
I7
tp27
I-100
s(I23
I77
I0
I0
I22
I77
I0
tp28
I-100
s(I57
I103
I2
I1
I57
I104
I1
tp29
I1000
s(I3
I77
I0
I1
I3
I77
I9
tp30
I-100
s(I63
I125
I0
I1
I63
I124
I9
tp31
I-100
s(I57
I127
I2
I1
I57
I0
I1
tp32
I1000
s(I22
I105
I0
I1
I22
I105
I9
tp33
I-100
s(I57
I5
I3
I1
I57
I6
I3
tp34
I1000
s(I3
I106
I0
I1
I2
I109
I9
tp35
I-100
s(I5
I114
I2
I0
I3
I118
I0
tp36
I-100
s(I36
I12
I0
I0
I35
I13
I0
tp37
I-100
s(I63
I121
I0
I0
I63
I120
I0
tp38
I-100
s(I57
I119
I0
I0
I57
I118
I0
tp39
I1000
s(I38
I114
I0
I0
I37
I113
I0
tp40
I-100
s(I2
I121
I0
I0
I1
I120
I0
tp41
I-100
s(I33
I93
I0
I0
I32
I93
I0
tp42
I-100
s(I57
I103
I4
I1
I57
I103
I4
tp43
I1000
s(I30
I106
I9
I1
I29
I105
I9
tp44
I-100
s(I3
I111
I9
I1
I3
I111
I8
tp45
I-100
s(I18
I97
I0
I1
I17
I96
I9
tp46
I-100
s(I57
I12
I0
I0
I57
I11
I0
tp47
I1000
s(I59
I101
I0
I0
I57
I105
I0
tp48
I1000
s(I57
I111
I4
I1
I57
I111
I4
tp49
I1000
s(I45
I40
I0
I0
I45
I41
I0
tp50
I-100
s(I38
I102
I0
I1
I37
I101
I9
tp51
I-100
s(I3
I94
I9
I1
I3
I94
I9
tp52
I-100
s(I57
I100
I3
I1
I57
I101
I3
tp53
I1000
s(I2
I121
I0
I0
I2
I120
I0
tp54
I-100
s(I10
I110
I0
I0
I9
I108
I0
tp55
I-100
s(I64
I121
I0
I0
I63
I122
I0
tp56
I-100
s(I57
I5
I3
I1
I57
I6
I2
tp57
I1000
s(I3
I101
I3
I1
I2
I104
I2
tp58
I-100
s(I57
I9
I0
I0
I57
I9
I0
tp59
I1000
s(I3
I107
I0
I1
I2
I105
I9
tp60
I-100
s(I22
I109
I0
I0
I22
I109
I0
tp61
I-100
s(I57
I2
I2
I1
I57
I3
I1
tp62
I1000
s(I62
I117
I0
I0
I62
I118
I0
tp63
I-100
s(I57
I120
I3
I1
I57
I121
I3
tp64
I1000
s(I3
I94
I0
I0
I2
I97
I0
tp65
I-100
s(I10
I90
I0
I1
I9
I88
I9
tp66
I-100
s(I3
I103
I0
I1
I3
I102
I9
tp67
I-100
s(I10
I114
I0
I0
I9
I112
I0
tp68
I-100
s(I62
I113
I0
I0
I61
I112
I0
tp69
I-100
s(I57
I0
I3
I1
I57
I0
I3
tp70
I1000
s(I63
I16
I0
I0
I63
I15
I0
tp71
I-100
s(I10
I82
I0
I1
I9
I80
I9
tp72
I-100
s(I3
I87
I0
I0
I3
I86
I0
tp73
I-100
s(I3
I103
I9
I1
I2
I103
I8
tp74
I-100
s(I3
I110
I9
I1
I3
I110
I8
tp75
I-100
s(I57
I115
I2
I1
I57
I116
I1
tp76
I1000
s(I64
I12
I0
I0
I63
I13
I0
tp77
I-100
s(I57
I32
I1
I0
I57
I33
I0
tp78
I1000
s(I13
I97
I0
I1
I13
I97
I9
tp79
I-100
s(I10
I90
I0
I0
I9
I88
I0
tp80
I-100
s(I30
I82
I9
I1
I29
I81
I9
tp81
I-100
s(I57
I5
I0
I0
I57
I5
I0
tp82
I1000
s(I57
I118
I2
I1
I57
I119
I2
tp83
I1000
s(I25
I7
I0
I0
I24
I8
I0
tp84
I-100
s(I63
I28
I0
I0
I62
I30
I0
tp85
I-100
s(I18
I93
I0
I0
I17
I92
I0
tp86
I-100
s(I59
I0
I0
I0
I57
I4
I0
tp87
I1000
s(I62
I0
I0
I1
I62
I0
I9
tp88
I-100
s(I57
I24
I3
I1
I57
I25
I2
tp89
I1000
s(I15
I113
I0
I0
I15
I113
I0
tp90
I-100
s(I42
I113
I0
I0
I42
I113
I0
tp91
I-100
s(I3
I110
I9
I1
I2
I110
I8
tp92
I-100
s(I38
I94
I0
I1
I37
I93
I9
tp93
I-100
s(I3
I5
I5
I1
I3
I5
I5
tp94
I-100
s(I60
I109
I0
I0
I60
I108
I0
tp95
I-100
s(I18
I97
I0
I0
I17
I96
I0
tp96
I-100
s(I57
I107
I2
I1
I57
I108
I1
tp97
I1000
s(I3
I98
I0
I0
I2
I101
I0
tp98
I-100
s(I3
I111
I0
I0
I3
I110
I0
tp99
I-100
s(I57
I3
I3
I1
I57
I4
I3
tp100
I1000
s(I5
I115
I3
I1
I3
I117
I2
tp101
I-100
s(I57
I6
I2
I1
I57
I7
I2
tp102
I1000
s(I61
I4
I0
I0
I61
I3
I0
tp103
I-100
s(I3
I101
I0
I0
I3
I100
I0
tp104
I-100
s(I57
I109
I6
I1
I57
I109
I6
tp105
I1000
s(I3
I95
I0
I1
I2
I93
I9
tp106
I-100
s(I57
I119
I0
I0
I57
I119
I0
tp107
I1000
s(I57
I122
I0
I0
I57
I122
I0
tp108
I1000
s(I30
I110
I9
I1
I29
I109
I9
tp109
I-100
s(I3
I110
I0
I0
I2
I113
I0
tp110
I-100
s(I57
I123
I4
I1
I57
I123
I4
tp111
I1000
s(I18
I105
I0
I1
I17
I104
I9
tp112
I-100
s(I2
I4
I1
I1
I1
I5
I1
tp113
I-100
s(I3
I113
I0
I0
I3
I112
I0
tp114
I-100
s(I63
I121
I1
I0
I63
I122
I0
tp115
I-100
s(I13
I97
I0
I0
I12
I97
I0
tp116
I-100
s(I57
I0
I3
I1
I57
I1
I2
tp117
I1000
s(I34
I36
I3
I1
I34
I37
I2
tp118
I-100
s(I22
I113
I0
I1
I22
I113
I9
tp119
I-100
s(I4
I7
I9
I1
I3
I7
I9
tp120
I-100
s(I63
I8
I0
I0
I62
I10
I0
tp121
I-100
s(I57
I29
I0
I0
I57
I29
I0
tp122
I1000
s(I3
I104
I9
I1
I3
I104
I8
tp123
I-100
s(I58
I122
I5
I1
I57
I122
I4
tp124
I-100
s(I13
I77
I0
I0
I13
I77
I0
tp125
I-100
s(I3
I105
I0
I1
I3
I105
I9
tp126
I-100
s(I3
I109
I6
I1
I2
I110
I5
tp127
I-100
s(I3
I106
I9
I1
I3
I106
I8
tp128
I-100
s(I3
I119
I8
I1
I2
I120
I6
tp129
I-100
s(I63
I101
I0
I0
I63
I100
I0
tp130
I-100
s(I1
I4
I7
I1
I1
I4
I6
tp131
I-100
s(I62
I117
I0
I0
I61
I116
I0
tp132
I-100
s(I3
I24
I0
I0
I3
I24
I0
tp133
I-100
s(I30
I94
I9
I0
I29
I93
I9
tp134
I-100
s(I60
I117
I5
I1
I60
I118
I5
tp135
I-100
s(I3
I5
I0
I0
I3
I6
I0
tp136
I-100
s(I59
I126
I0
I0
I57
I125
I0
tp137
I1000
s(I57
I0
I0
I0
I57
I0
I0
tp138
I1000
s(I57
I5
I5
I1
I57
I5
I5
tp139
I1000
s(I3
I86
I0
I0
I2
I85
I0
tp140
I-100
s(I2
I4
I0
I0
I2
I5
I0
tp141
I-100
s(I3
I110
I0
I0
I2
I109
I0
tp142
I-100
s(I18
I93
I0
I1
I17
I92
I9
tp143
I-100
s(I57
I1
I7
I1
I57
I1
I6
tp144
I1000
s(I3
I110
I0
I1
I3
I110
I9
tp145
I-100
s(I3
I107
I9
I1
I2
I107
I8
tp146
I-100
s(I60
I36
I5
I1
I60
I37
I5
tp147
I-100
s(I3
I93
I0
I0
I3
I93
I0
tp148
I-100
s(I57
I109
I0
I0
I57
I108
I0
tp149
I1000
s(I3
I115
I9
I1
I2
I115
I8
tp150
I-100
s(I60
I32
I5
I1
I60
I33
I5
tp151
I-100
s(I62
I4
I0
I1
I62
I3
I9
tp152
I-100
s(I4
I9
I2
I1
I3
I10
I1
tp153
I-100
s(I4
I9
I9
I1
I3
I9
I9
tp154
I-100
s(I57
I99
I2
I1
I57
I100
I1
tp155
I1000
s(I13
I85
I0
I0
I12
I85
I0
tp156
I-100
s(I18
I85
I0
I1
I17
I84
I9
tp157
I-100
s(I5
I120
I0
I0
I3
I119
I0
tp158
I-100
s(I58
I110
I5
I1
I57
I110
I4
tp159
I-100
s(I57
I101
I0
I0
I57
I101
I0
tp160
I1000
s(I38
I86
I0
I1
I37
I85
I9
tp161
I-100
s(I3
I103
I9
I1
I3
I103
I8
tp162
I-100
s(I10
I94
I0
I1
I9
I92
I9
tp163
I-100
s(I57
I37
I0
I0
I57
I36
I0
tp164
I1000
s(I60
I4
I5
I1
I60
I5
I5
tp165
I-100
s(I3
I102
I0
I1
I2
I101
I9
tp166
I-100
s(I3
I87
I0
I1
I3
I86
I9
tp167
I-100
s(I57
I121
I0
I0
I57
I120
I0
tp168
I1000
s(I3
I95
I0
I0
I3
I95
I0
tp169
I-100
s(I70
I121
I0
I1
I64
I88
I9
tp170
I-100
s(I3
I103
I0
I1
I3
I103
I9
tp171
I-100
s(I3
I90
I9
I1
I2
I90
I8
tp172
I-100
s(I23
I93
I0
I0
I22
I93
I0
tp173
I-100
s(I57
I11
I2
I1
I57
I12
I1
tp174
I1000
s(I22
I109
I0
I1
I22
I109
I9
tp175
I-100
s(I57
I100
I6
I1
I57
I100
I6
tp176
I1000
s(I13
I93
I0
I0
I13
I93
I0
tp177
I-100
s(I59
I109
I0
I0
I57
I113
I0
tp178
I1000
s(I3
I104
I8
I1
I3
I104
I7
tp179
I-100
s(I62
I97
I0
I0
I61
I96
I0
tp180
I-100
s(I57
I27
I3
I1
I57
I28
I3
tp181
I1000
s(I3
I106
I3
I1
I2
I108
I2
tp182
I-100
s(I18
I89
I0
I0
I17
I88
I0
tp183
I-100
s(I70
I4
I1
I0
I69
I5
I0
tp184
I-100
s(I60
I8
I5
I1
I60
I9
I5
tp185
I-100
s(I3
I81
I0
I0
I3
I81
I0
tp186
I-100
s(I62
I12
I0
I0
I62
I13
I0
tp187
I-100
s(I30
I102
I9
I1
I29
I101
I9
tp188
I-100
s(I30
I90
I9
I0
I29
I89
I9
tp189
I-100
s(I60
I109
I5
I1
I60
I110
I5
tp190
I-100
s(I57
I5
I1
I0
I57
I7
I0
tp191
I1000
s(I55
I19
I0
I0
I55
I20
I0
tp192
I-100
s(I63
I97
I0
I0
I63
I96
I0
tp193
I-100
s(I4
I118
I9
I1
I3
I118
I9
tp194
I-100
s(I38
I78
I0
I0
I37
I77
I0
tp195
I-100
s(I3
I86
I0
I1
I2
I89
I9
tp196
I-100
s(I5
I120
I0
I1
I3
I119
I9
tp197
I-100
s(I57
I9
I3
I1
I57
I10
I2
tp198
I1000
s(I63
I36
I0
I0
I62
I38
I0
tp199
I-100
s(I64
I24
I0
I1
I63
I25
I9
tp200
I-100
s(I2
I4
I2
I1
I2
I5
I1
tp201
I-100
s(I22
I105
I0
I0
I22
I105
I0
tp202
I-100
s(I59
I125
I0
I0
I57
I0
I0
tp203
I1000
s(I57
I116
I3
I1
I57
I117
I3
tp204
I1000
s(I30
I78
I9
I1
I29
I77
I9
tp205
I-100
s(I57
I121
I3
I1
I57
I122
I2
tp206
I1000
s(I28
I23
I1
I0
I28
I24
I0
tp207
I-100
s(I63
I0
I0
I1
I62
I0
I9
tp208
I-100
s(I3
I120
I9
I1
I3
I120
I8
tp209
I-100
s(I59
I1
I6
I1
I58
I1
I5
tp210
I-100
s(I30
I110
I9
I0
I29
I109
I9
tp211
I-100
s(I59
I1
I0
I0
I57
I0
I0
tp212
I1000
s(I59
I97
I0
I0
I59
I96
I0
tp213
I-100
s(I3
I85
I0
I1
I3
I85
I9
tp214
I-100
s(I5
I119
I0
I0
I3
I118
I0
tp215
I-100
s(I59
I121
I0
I1
I57
I125
I9
tp216
I1000
s(I58
I17
I5
I1
I57
I17
I4
tp217
I-100
s(I57
I13
I0
I0
I57
I13
I0
tp218
I1000
s(I57
I109
I0
I0
I57
I109
I0
tp219
I1000
s(I59
I117
I1
I1
I58
I118
I1
tp220
I-100
s(I42
I101
I0
I1
I42
I101
I9
tp221
I-100
s(I3
I4
I0
I0
I2
I6
I0
tp222
I-100
s(I4
I7
I0
I0
I3
I7
I0
tp223
I-100
s(I3
I13
I0
I0
I3
I13
I0
tp224
I-100
s(I62
I4
I0
I0
I61
I3
I0
tp225
I-100
s(I3
I90
I0
I1
I2
I89
I9
tp226
I-100
s(I57
I17
I0
I0
I57
I17
I0
tp227
I1000
s(I10
I86
I0
I1
I9
I84
I9
tp228
I-100
s(I63
I89
I0
I0
I63
I88
I0
tp229
I-100
s(I57
I121
I0
I0
I57
I121
I0
tp230
I1000
s(I62
I20
I0
I1
I62
I19
I9
tp231
I-100
s(I22
I101
I0
I0
I22
I101
I0
tp232
I-100
s(I57
I1
I6
I1
I57
I1
I6
tp233
I1000
s(I57
I123
I2
I1
I57
I124
I2
tp234
I1000
s(I63
I24
I0
I0
I62
I26
I0
tp235
I-100
s(I57
I87
I5
I1
I57
I88
I5
tp236
I1000
s(I3
I31
I4
I1
I3
I31
I4
tp237
I-100
s(I60
I89
I0
I0
I60
I88
I0
tp238
I-100
s(I4
I118
I8
I1
I3
I118
I8
tp239
I-100
s(I3
I14
I0
I0
I3
I14
I0
tp240
I-100
s(I3
I91
I9
I1
I2
I91
I8
tp241
I-100
s(I25
I7
I0
I1
I24
I8
I9
tp242
I-100
s(I10
I106
I0
I1
I9
I104
I9
tp243
I-100
s(I44
I105
I0
I0
I43
I105
I0
tp244
I-100
s(I57
I111
I2
I1
I57
I112
I1
tp245
I1000
s(I13
I101
I0
I0
I12
I101
I0
tp246
I-100
s(I57
I24
I1
I0
I57
I25
I0
tp247
I1000
s(I62
I105
I0
I0
I61
I104
I0
tp248
I-100
s(I4
I117
I9
I1
I3
I117
I9
tp249
I-100
s(I62
I20
I0
I0
I62
I21
I0
tp250
I-100
s(I3
I94
I0
I1
I2
I93
I9
tp251
I-100
s(I30
I94
I9
I1
I29
I93
I9
tp252
I-100
s(I57
I15
I3
I1
I57
I16
I3
tp253
I1000
s(I38
I98
I0
I0
I37
I97
I0
tp254
I-100
s(I3
I115
I0
I1
I2
I113
I9
tp255
I-100
s(I57
I28
I3
I1
I57
I29
I2
tp256
I1000
s(I57
I5
I1
I0
I57
I6
I0
tp257
I1000
s(I70
I121
I0
I0
I64
I108
I0
tp258
I-100
s(I57
I8
I5
I1
I57
I9
I4
tp259
I1000
s(I61
I7
I0
I0
I61
I9
I0
tp260
I-100
s(I3
I5
I9
I1
I2
I5
I8
tp261
I-100
s(I63
I113
I0
I0
I63
I112
I0
tp262
I-100
s(I42
I113
I0
I1
I42
I113
I9
tp263
I-100
s(I21
I105
I0
I0
I21
I105
I0
tp264
I-100
s(I3
I105
I0
I0
I3
I105
I0
tp265
I-100
s(I3
I114
I9
I1
I3
I114
I9
tp266
I-100
s(I38
I43
I1
I0
I38
I44
I0
tp267
I-100
s(I10
I106
I0
I0
I9
I104
I0
tp268
I-100
s(I59
I4
I6
I1
I59
I5
I5
tp269
I-100
s(I62
I101
I0
I0
I61
I100
I0
tp270
I-100
s(I3
I99
I0
I1
I2
I97
I9
tp271
I-100
s(I62
I32
I0
I0
I62
I33
I0
tp272
I-100
s(I0
I4
I5
I1
I0
I5
I5
tp273
I-100
s(I10
I94
I0
I0
I9
I92
I0
tp274
I-100
s(I41
I85
I0
I0
I41
I85
I0
tp275
I-100
s(I3
I114
I3
I1
I2
I116
I2
tp276
I-100
s(I3
I113
I9
I1
I3
I113
I8
tp277
I-100
s(I57
I105
I0
I0
I57
I104
I0
tp278
I1000
s(I18
I89
I0
I1
I17
I88
I9
tp279
I-100
s(I4
I31
I2
I1
I4
I32
I1
tp280
I-100
s(I3
I99
I0
I0
I2
I97
I0
tp281
I-100
s(I3
I25
I9
I1
I3
I25
I8
tp282
I-100
s(I38
I114
I0
I1
I37
I113
I9
tp283
I-100
s(I58
I98
I5
I1
I57
I98
I4
tp284
I-100
s(I13
I101
I0
I1
I13
I101
I9
tp285
I-100
s(I64
I36
I2
I1
I64
I37
I2
tp286
I-100
s(I5
I118
I6
I1
I3
I119
I5
tp287
I-100
s(I58
I1
I5
I1
I57
I1
I4
tp288
I-100
s(I57
I13
I3
I1
I57
I14
I3
tp289
I1000
s(I62
I16
I0
I0
I62
I15
I0
tp290
I-100
s(I3
I103
I0
I0
I3
I102
I0
tp291
I-100
s(I23
I81
I0
I0
I22
I81
I0
tp292
I-100
s(I59
I117
I6
I1
I59
I118
I5
tp293
I-100
s(I3
I77
I0
I0
I3
I77
I0
tp294
I-100
s(I60
I16
I5
I1
I60
I17
I4
tp295
I-100
s(I62
I121
I0
I0
I61
I120
I0
tp296
I-100
s(I3
I120
I0
I0
I3
I120
I0
tp297
I-100
s(I38
I90
I0
I1
I37
I89
I9
tp298
I-100
s(I57
I117
I0
I0
I57
I116
I0
tp299
I1000
s(I64
I20
I0
I0
I63
I21
I0
tp300
I-100
s(I18
I113
I0
I1
I17
I112
I9
tp301
I-100
s(I42
I77
I0
I0
I42
I77
I0
tp302
I-100
s(I62
I24
I0
I1
I62
I23
I9
tp303
I-100
s(I38
I110
I0
I1
I37
I109
I9
tp304
I-100
s(I3
I112
I9
I1
I3
I112
I8
tp305
I-100
s(I59
I0
I6
I1
I59
I1
I5
tp306
I-100
s(I59
I105
I0
I0
I57
I109
I0
tp307
I1000
s(I63
I32
I0
I0
I62
I34
I0
tp308
I-100
s(I58
I1
I4
I1
I57
I1
I3
tp309
I-100
s(I22
I93
I0
I1
I22
I93
I9
tp310
I-100
s(I38
I98
I0
I1
I37
I97
I9
tp311
I-100
s(I63
I105
I0
I0
I63
I104
I0
tp312
I-100
s(I59
I98
I0
I0
I57
I97
I0
tp313
I1000
s(I3
I114
I0
I0
I2
I117
I0
tp314
I-100
s(I3
I110
I9
I1
I3
I110
I9
tp315
I-100
s(I3
I106
I0
I1
I2
I105
I9
tp316
I-100
s(I3
I108
I9
I1
I3
I108
I8
tp317
I-100
s(I13
I101
I0
I1
I12
I101
I9
tp318
I-100
s(I30
I86
I9
I0
I29
I85
I9
tp319
I-100
s(I57
I93
I0
I0
I57
I92
I0
tp320
I1000
s(I3
I94
I9
I1
I2
I94
I8
tp321
I-100
s(I3
I25
I9
I1
I3
I25
I9
tp322
I-100
s(I10
I82
I0
I0
I9
I80
I0
tp323
I-100
s(I57
I8
I1
I0
I57
I9
I0
tp324
I1000
s(I32
I113
I0
I0
I32
I113
I0
tp325
I-100
s(I57
I108
I3
I1
I57
I109
I3
tp326
I1000
s(I57
I7
I0
I0
I57
I7
I0
tp327
I1000
s(I57
I125
I3
I1
I57
I126
I2
tp328
I1000
s(I64
I20
I0
I1
I63
I21
I9
tp329
I-100
s(I3
I98
I0
I1
I2
I101
I9
tp330
I-100
s(I42
I77
I0
I1
I42
I77
I9
tp331
I-100
s(I4
I9
I0
I0
I3
I9
I0
tp332
I-100
s(I62
I125
I0
I0
I62
I126
I0
tp333
I-100
s(I3
I94
I0
I1
I2
I97
I9
tp334
I-100
s(I64
I115
I2
I0
I63
I118
I0
tp335
I-100
s(I57
I24
I0
I0
I57
I23
I0
tp336
I1000
s(I57
I123
I2
I1
I57
I124
I1
tp337
I1000
s(I38
I90
I0
I0
I37
I89
I0
tp338
I-100
s(I57
I13
I1
I1
I57
I14
I1
tp339
I1000
s(I57
I99
I4
I1
I57
I99
I4
tp340
I1000
s(I57
I109
I7
I1
I57
I109
I6
tp341
I1000
s(I57
I105
I0
I0
I57
I105
I0
tp342
I1000
s(I3
I95
I9
I1
I2
I95
I8
tp343
I-100
s(I0
I3
I1
I1
I0
I4
I1
tp344
I-100
s(I57
I100
I6
I1
I57
I101
I5
tp345
I1000
s(I18
I105
I0
I0
I17
I104
I0
tp346
I-100
s(I57
I21
I0
I0
I57
I21
I0
tp347
I1000
s(I3
I110
I0
I1
I2
I113
I9
tp348
I-100
s(I57
I31
I2
I1
I57
I32
I1
tp349
I1000
s(I38
I82
I0
I0
I37
I81
I0
tp350
I-100
s(I32
I93
I0
I0
I32
I93
I0
tp351
I-100
s(I57
I95
I2
I1
I57
I96
I1
tp352
I1000
s(I41
I85
I0
I1
I41
I85
I9
tp353
I-100
s(I3
I111
I5
I1
I3
I112
I4
tp354
I-100
s(I5
I117
I8
I1
I3
I117
I6
tp355
I-100
s(I58
I5
I2
I1
I58
I6
I1
tp356
I-100
s(I63
I0
I0
I0
I63
I0
I0
tp357
I-100
s(I3
I12
I6
I1
I3
I13
I5
tp358
I-100
s(I58
I126
I5
I1
I57
I126
I4
tp359
I-100
s(I3
I78
I9
I1
I3
I78
I8
tp360
I-100
s(I4
I118
I0
I0
I3
I117
I0
tp361
I-100
s(I60
I0
I5
I1
I60
I1
I4
tp362
I-100
s(I64
I16
I0
I0
I63
I17
I0
tp363
I-100
s(I62
I12
I0
I0
I62
I11
I0
tp364
I-100
s(I3
I120
I8
I1
I2
I120
I6
tp365
I-100
s(I3
I102
I3
I1
I2
I104
I2
tp366
I-100
s(I62
I12
I0
I0
I61
I11
I0
tp367
I-100
s(I60
I16
I5
I1
I59
I16
I4
tp368
I-100
s(I18
I109
I0
I0
I17
I108
I0
tp369
I-100
s(I10
I78
I0
I1
I9
I76
I9
tp370
I-100
s(I61
I117
I6
I1
I60
I118
I5
tp371
I-100
s(I10
I86
I0
I0
I9
I84
I0
tp372
I-100
s(I57
I8
I3
I1
I57
I9
I2
tp373
I1000
s(I32
I85
I0
I0
I32
I85
I0
tp374
I-100
s(I2
I120
I8
I1
I2
I120
I7
tp375
I-100
s(I3
I98
I9
I1
I2
I98
I8
tp376
I-100
s(I5
I116
I9
I1
I3
I116
I8
tp377
I-100
s(I3
I110
I3
I1
I2
I112
I2
tp378
I-100
s(I3
I102
I0
I0
I2
I105
I0
tp379
I-100
s(I23
I101
I0
I0
I22
I101
I0
tp380
I-100
s(I57
I93
I0
I0
I57
I93
I0
tp381
I1000
s(I58
I114
I5
I1
I57
I114
I4
tp382
I-100
s(I3
I107
I0
I1
I3
I107
I9
tp383
I-100
s(I4
I117
I0
I1
I3
I118
I9
tp384
I-100
s(I46
I97
I0
I0
I45
I96
I0
tp385
I-100
s(I33
I11
I2
I1
I32
I12
I2
tp386
I-100
s(I10
I102
I0
I1
I9
I100
I9
tp387
I-100
s(I63
I109
I0
I0
I63
I108
I0
tp388
I-100
s(I10
I98
I0
I1
I9
I96
I9
tp389
I-100
s(I57
I19
I2
I1
I57
I20
I1
tp390
I1000
s(I3
I106
I0
I0
I2
I109
I0
tp391
I-100
s(I3
I82
I0
I1
I2
I81
I9
tp392
I-100
s(I13
I81
I0
I1
I12
I81
I9
tp393
I-100
s(I41
I77
I0
I0
I41
I77
I0
tp394
I-100
s(I3
I93
I0
I1
I3
I93
I9
tp395
I-100
s(I63
I12
I1
I0
I63
I13
I0
tp396
I-100
s(I3
I24
I0
I1
I3
I24
I9
tp397
I-100
s(I57
I112
I3
I1
I57
I113
I3
tp398
I1000
s(I3
I78
I9
I1
I3
I78
I9
tp399
I-100
s(I57
I5
I5
I1
I57
I5
I4
tp400
I1000
s(I3
I90
I0
I1
I2
I93
I9
tp401
I-100
s(I62
I12
I0
I1
I62
I11
I9
tp402
I-100
s(I38
I102
I0
I0
I37
I101
I0
tp403
I-100
s(I57
I122
I3
I1
I57
I123
I2
tp404
I1000
s(I3
I111
I0
I0
I3
I111
I0
tp405
I-100
s(I3
I91
I0
I0
I2
I89
I0
tp406
I-100
s(I58
I5
I5
I1
I57
I5
I4
tp407
I-100
s(I57
I16
I3
I1
I57
I17
I2
tp408
I1000
s(I3
I101
I6
I1
I2
I102
I5
tp409
I-100
s(I62
I109
I0
I0
I61
I108
I0
tp410
I-100
s(I63
I0
I0
I0
I62
I1
I0
tp411
I-100
s(I3
I115
I0
I0
I3
I114
I0
tp412
I-100
s(I18
I101
I0
I1
I17
I100
I9
tp413
I-100
s(I30
I82
I9
I0
I29
I81
I9
tp414
I-100
s(I3
I108
I8
I1
I2
I108
I6
tp415
I-100
s(I30
I98
I9
I0
I29
I97
I9
tp416
I-100
s(I3
I120
I0
I1
I3
I120
I9
tp417
I-100
s(I57
I124
I2
I1
I57
I125
I1
tp418
I1000
s(I38
I110
I0
I0
I37
I109
I0
tp419
I-100
s(I59
I23
I1
I0
I59
I25
I0
tp420
I-100
s(I3
I94
I9
I1
I3
I94
I8
tp421
I-100
s(I59
I102
I0
I0
I57
I101
I0
tp422
I1000
s(I57
I122
I0
I0
I57
I121
I0
tp423
I1000
s(I18
I113
I0
I0
I17
I112
I0
tp424
I-100
s(I3
I109
I9
I1
I3
I109
I8
tp425
I-100
s(I60
I106
I0
I0
I59
I110
I0
tp426
I-100
s(I57
I115
I4
I1
I57
I115
I4
tp427
I1000
s(I1
I4
I1
I1
I1
I5
I1
tp428
I-100
s(I62
I117
I0
I1
I62
I116
I9
tp429
I-100
s(I64
I8
I0
I0
I63
I9
I0
tp430
I-100
s(I61
I16
I6
I1
I60
I17
I5
tp431
I-100
s(I2
I4
I0
I0
I2
I6
I0
tp432
I-100
s(I57
I104
I3
I1
I57
I105
I3
tp433
I1000
s(I70
I121
I0
I1
I64
I92
I9
tp434
I-100
s(I55
I11
I0
I0
I55
I12
I0
tp435
I-100
s(I18
I77
I0
I1
I17
I76
I9
tp436
I-100
s(I42
I105
I0
I0
I42
I105
I0
tp437
I-100
s(I10
I98
I0
I0
I9
I96
I0
tp438
I-100
s(I38
I78
I0
I1
I37
I77
I9
tp439
I-100
s(I3
I99
I9
I1
I2
I99
I8
tp440
I-100
s(I64
I16
I0
I1
I63
I17
I9
tp441
I-100
s(I59
I8
I7
I1
I59
I8
I7
tp442
I-100
s(I5
I116
I5
I1
I3
I118
I3
tp443
I-100
s(I57
I16
I0
I0
I57
I15
I0
tp444
I1000
s(I62
I0
I0
I0
I62
I1
I0
tp445
I-100
s(I64
I12
I0
I1
I63
I13
I9
tp446
I-100
s(I57
I124
I3
I1
I57
I125
I3
tp447
I1000
s(I59
I120
I6
I1
I57
I121
I5
tp448
I1000
s(I18
I77
I0
I0
I17
I76
I0
tp449
I-100
s(I59
I122
I0
I0
I57
I121
I0
tp450
I1000
s(I3
I111
I0
I1
I3
I111
I9
tp451
I-100
s(I34
I35
I3
I1
I34
I36
I2
tp452
I-100
s(I31
I11
I2
I1
I31
I12
I1
tp453
I-100
s(I22
I101
I0
I1
I22
I101
I9
tp454
I-100
s(I57
I23
I3
I1
I57
I24
I3
tp455
I1000
s(I60
I20
I5
I1
I60
I21
I4
tp456
I-100
s(I32
I101
I0
I0
I32
I101
I0
tp457
I-100
s(I5
I115
I2
I0
I3
I118
I0
tp458
I-100
s(I59
I113
I0
I0
I57
I117
I0
tp459
I1000
s(I30
I106
I9
I0
I29
I105
I9
tp460
I-100
s(I58
I25
I5
I1
I57
I25
I4
tp461
I-100
s(I3
I114
I0
I1
I3
I114
I9
tp462
I-100
s(I3
I96
I8
I1
I2
I96
I6
tp463
I-100
s(I30
I78
I9
I0
I29
I77
I9
tp464
I-100
s(I61
I8
I6
I1
I60
I9
I5
tp465
I-100
s(I63
I97
I0
I1
I63
I98
I9
tp466
I-100
s(I57
I116
I0
I0
I57
I116
I0
tp467
I1000
s(I60
I113
I5
I1
I60
I114
I5
tp468
I-100
s(I3
I89
I0
I0
I3
I89
I0
tp469
I-100
s(I57
I1
I2
I1
I57
I2
I2
tp470
I1000
s(I13
I93
I0
I1
I13
I93
I9
tp471
I-100
s(I30
I114
I9
I1
I29
I113
I9
tp472
I-100
s(I3
I103
I0
I0
I2
I101
I0
tp473
I-100
s(I3
I111
I0
I1
I2
I109
I9
tp474
I-100
s(I0
I4
I3
I1
I70
I5
I3
tp475
I-100
s(I13
I93
I0
I0
I12
I93
I0
tp476
I-100
s(I59
I110
I0
I0
I57
I109
I0
tp477
I1000
s(I57
I117
I0
I0
I57
I117
I0
tp478
I1000
s(I10
I78
I0
I0
I9
I76
I0
tp479
I-100
s(I18
I101
I0
I0
I17
I100
I0
tp480
I-100
s(I3
I5
I8
I1
I3
I5
I8
tp481
I-100
s(I60
I28
I5
I1
I60
I29
I5
tp482
I-100
s(I3
I107
I9
I1
I3
I107
I8
tp483
I-100
s(I57
I103
I0
I0
I57
I102
I0
tp484
I1000
s(I22
I77
I0
I0
I22
I77
I0
tp485
I-100
s(I3
I23
I0
I0
I3
I23
I0
tp486
I-100
s(I57
I10
I2
I1
I57
I11
I2
tp487
I1000
s(I62
I121
I0
I0
I62
I122
I0
tp488
I-100
s(I62
I125
I0
I0
I61
I124
I0
tp489
I-100
s(I1
I4
I6
I1
I0
I5
I6
tp490
I-100
s(I62
I0
I0
I0
I61
I0
I0
tp491
I-100
s(I13
I97
I0
I0
I13
I97
I0
tp492
I-100
s(I30
I90
I9
I1
I29
I89
I9
tp493
I-100
s(I3
I91
I0
I1
I3
I91
I9
tp494
I-100
s(I61
I20
I6
I1
I60
I21
I5
tp495
I-100
s(I57
I119
I2
I1
I57
I120
I1
tp496
I1000
s(I57
I11
I0
I0
I57
I11
I0
tp497
I1000
s(I30
I114
I9
I0
I29
I113
I9
tp498
I-100
s(I58
I106
I5
I1
I57
I106
I4
tp499
I-100
s(I32
I81
I0
I0
I32
I81
I0
tp500
I-100
s(I59
I118
I0
I0
I57
I117
I0
tp501
I1000
s(I3
I115
I5
I1
I2
I117
I3
tp502
I-100
s(I57
I3
I0
I0
I57
I3
I0
tp503
I1000
s(I1
I4
I0
I0
I1
I6
I0
tp504
I-100
s(I13
I77
I0
I1
I13
I77
I9
tp505
I-100
s(I3
I86
I0
I0
I2
I89
I0
tp506
I-100
s(I45
I15
I0
I0
I44
I17
I0
tp507
I-100
s(I38
I86
I0
I0
I37
I85
I0
tp508
I-100
s(I62
I4
I0
I0
I62
I5
I0
tp509
I-100
s(I62
I0
I6
I1
I61
I1
I6
tp510
I-100
s(I58
I118
I5
I1
I57
I118
I4
tp511
I-100
s(I22
I93
I0
I0
I22
I93
I0
tp512
I-100
s(I3
I107
I0
I1
I3
I106
I9
tp513
I-100
s(I59
I0
I6
I1
I57
I0
I5
tp514
I1000
s(I4
I117
I0
I1
I3
I119
I9
tp515
I-100
s(I59
I93
I0
I0
I57
I97
I0
tp516
I1000
s(I3
I102
I9
I1
I2
I102
I8
tp517
I-100
s(I3
I85
I0
I0
I3
I85
I0
tp518
I-100
s(I13
I85
I0
I1
I12
I85
I9
tp519
I-100
s(I3
I82
I0
I0
I2
I81
I0
tp520
I-100
s(I61
I12
I6
I1
I60
I13
I5
tp521
I-100
s(I4
I7
I0
I1
I3
I7
I9
tp522
I-100
s(I62
I16
I0
I0
I62
I17
I0
tp523
I-100
s(I10
I102
I0
I0
I9
I100
I0
tp524
I-100
s(I42
I101
I0
I0
I42
I101
I0
tp525
I-100
s(I63
I12
I0
I0
I62
I13
I0
tp526
I-100
s(I3
I114
I0
I0
I3
I114
I0
tp527
I-100
s(I3
I114
I0
I1
I2
I117
I9
tp528
I-100
s(I3
I87
I9
I1
I3
I87
I8
tp529
I-100
s(I10
I110
I0
I1
I9
I108
I9
tp530
I-100
s(I3
I102
I0
I1
I2
I105
I9
tp531
I-100
s(I13
I81
I0
I0
I12
I81
I0
tp532
I-100
s(I57
I12
I3
I1
I57
I13
I2
tp533
I1000
s(I3
I103
I0
I1
I2
I101
I9
tp534
I-100
s(I17
I19
I0
I0
I17
I20
I0
tp535
I-100
s(I3
I107
I0
I0
I3
I106
I0
tp536
I-100
s(I62
I24
I0
I0
I62
I23
I0
tp537
I-100
s(I57
I89
I7
I1
I57
I89
I6
tp538
I1000
s(I57
I126
I0
I0
I57
I126
I0
tp539
I1000
s(I69
I3
I0
I0
I64
I106
I0
tp540
I-100
s(I3
I91
I0
I1
I2
I89
I9
tp541
I-100
s(I4
I6
I0
I0
I3
I7
I0
tp542
I-100
s(I62
I113
I0
I0
I62
I114
I0
tp543
I-100
s(I18
I109
I0
I1
I17
I108
I9
tp544
I-100
s(I3
I111
I9
I1
I2
I111
I8
tp545
I-100
s(I3
I92
I8
I1
I2
I92
I6
tp546
I-100
s(I38
I94
I0
I0
I37
I93
I0
tp547
I-100
s(I0
I4
I1
I1
I70
I5
I1
tp548
I-100
s(I3
I113
I0
I1
I3
I112
I9
tp549
I-100
s(I18
I85
I0
I0
I17
I84
I0
tp550
I-100
s(I30
I86
I9
I1
I29
I85
I9
tp551
I-100
s(I3
I113
I6
I1
I2
I114
I5
tp552
I-100
s(I59
I97
I0
I0
I57
I101
I0
tp553
I1000
s(I58
I13
I5
I1
I57
I13
I4
tp554
I-100
s(I64
I0
I0
I1
I63
I1
I9
tp555
I-100
s(I57
I4
I1
I1
I57
I5
I1
tp556
I1000
s(I62
I113
I2
I1
I62
I114
I1
tp557
I-100
s(I59
I117
I0
I0
I57
I121
I0
tp558
I1000
s(I4
I9
I0
I1
I3
I9
I9
tp559
I-100
s(I3
I95
I0
I0
I2
I93
I0
tp560
I-100
s(I3
I107
I0
I0
I2
I105
I0
tp561
I-100
s(I70
I121
I0
I0
I64
I112
I0
tp562
I-100
s(I3
I82
I9
I1
I2
I82
I8
tp563
I-100
s(I0
I4
I6
I1
I0
I5
I5
tp564
I-100
s(I3
I114
I0
I0
I2
I113
I0
tp565
I-100
s(I2
I121
I0
I1
I1
I120
I9
tp566
I-100
s(I57
I25
I0
I0
I57
I25
I0
tp567
I1000
s(I57
I20
I3
I1
I57
I21
I2
tp568
I1000
s(I3
I107
I5
I1
I2
I109
I3
tp569
I-100
s(I3
I114
I9
I1
I2
I114
I8
tp570
I-100
s(I4
I117
I0
I0
I3
I117
I0
tp571
I-100
s(I46
I109
I0
I0
I45
I108
I0
tp572
I-100
s.