(dp0
(I61
I2
I3
I1
I60
I5
I2
tp1
I-100
s(I3
I5
I0
I1
I2
I8
I9
tp2
I-100
s(I3
I106
I9
I1
I2
I106
I8
tp3
I-100
s(I38
I82
I0
I1
I37
I81
I9
tp4
I-100
s(I30
I98
I9
I1
I29
I97
I9
tp5
I-100
s(I30
I102
I9
I0
I29
I101
I9
tp6
I-100
s(I27
I82
I0
I1
I26
I81
I9
tp7
I-100
s(I61
I5
I0
I0
I60
I9
I0
tp8
I-100
s(I46
I85
I0
I0
I45
I84
I0
tp9
I-100
s(I10
I82
I0
I1
I9
I80
I9
tp10
I-100
s(I59
I16
I0
I0
I57
I20
I0
tp11
I1000
s(I38
I106
I0
I1
I37
I105
I9
tp12
I-100
s(I5
I10
I0
I0
I3
I9
I0
tp13
I-100
s(I3
I90
I0
I0
I2
I93
I0
tp14
I-100
s(I63
I109
I0
I0
I62
I113
I0
tp15
I-100
s(I3
I98
I0
I1
I2
I97
I9
tp16
I-100
s(I0
I122
I0
I1
I70
I120
I9
tp17
I-100
s(I3
I114
I5
I1
I2
I115
I3
tp18
I-100
s(I46
I77
I0
I0
I45
I76
I0
tp19
I-100
s(I3
I10
I8
I1
I2
I11
I6
tp20
I-100
s(I59
I9
I0
I1
I57
I8
I9
tp21
I1000
s(I62
I11
I3
I1
I61
I14
I2
tp22
I-100
s(I3
I111
I8
I1
I2
I111
I6
tp23
I-100
s(I61
I111
I2
I0
I60
I114
I0
tp24
I-100
s(I61
I121
I8
I1
I60
I122
I6
tp25
I-100
s(I3
I106
I0
I1
I2
I109
I9
tp26
I-100
s(I59
I8
I3
I1
I57
I10
I2
tp27
I1000
s(I27
I110
I0
I1
I26
I109
I9
tp28
I-100
s(I64
I17
I2
I0
I63
I20
I0
tp29
I-100
s(I63
I24
I0
I0
I62
I27
I0
tp30
I-100
s(I59
I5
I5
I1
I57
I6
I3
tp31
I1000
s(I61
I18
I0
I0
I60
I22
I0
tp32
I-100
s(I59
I15
I6
I1
I57
I16
I5
tp33
I1000
s(I0
I121
I0
I0
I70
I120
I0
tp34
I-100
s(I59
I14
I8
I1
I57
I14
I6
tp35
I1000
s(I18
I113
I0
I1
I17
I112
I9
tp36
I-100
s(I3
I99
I0
I1
I2
I97
I9
tp37
I-100
s(I3
I109
I2
I0
I2
I112
I0
tp38
I-100
s(I38
I114
I0
I0
I37
I113
I0
tp39
I-100
s(I2
I121
I0
I0
I1
I120
I0
tp40
I-100
s(I3
I13
I9
I1
I2
I13
I8
tp41
I-100
s(I63
I28
I6
I1
I62
I28
I5
tp42
I-100
s(I63
I28
I3
I1
I62
I31
I2
tp43
I-100
s(I3
I16
I0
I0
I2
I20
I0
tp44
I-100
s(I5
I116
I8
I1
I3
I117
I6
tp45
I-100
s(I59
I113
I3
I1
I57
I116
I2
tp46
I1000
s(I59
I41
I5
I1
I57
I42
I3
tp47
I1000
s(I30
I106
I9
I1
I29
I105
I9
tp48
I-100
s(I3
I94
I0
I0
I2
I97
I0
tp49
I-100
s(I63
I24
I3
I1
I62
I27
I2
tp50
I-100
s(I59
I101
I0
I0
I57
I105
I0
tp51
I1000
s(I62
I121
I0
I1
I61
I124
I9
tp52
I-100
s(I6
I14
I2
I0
I5
I17
I0
tp53
I-100
s(I1
I1
I2
I0
I0
I4
I0
tp54
I-100
s(I59
I90
I0
I0
I57
I89
I0
tp55
I1000
s(I18
I77
I0
I1
I17
I76
I9
tp56
I-100
s(I63
I117
I6
I1
I62
I118
I5
tp57
I-100
s(I59
I100
I6
I1
I57
I101
I5
tp58
I1000
s(I5
I9
I9
I1
I3
I9
I8
tp59
I-100
s(I59
I13
I5
I1
I57
I15
I3
tp60
I1000
s(I59
I17
I5
I1
I57
I18
I3
tp61
I1000
s(I10
I86
I0
I0
I9
I84
I0
tp62
I-100
s(I70
I3
I3
I1
I64
I1
I2
tp63
I-100
s(I3
I109
I3
I1
I2
I112
I2
tp64
I-100
s(I0
I3
I3
I1
I70
I6
I2
tp65
I-100
s(I62
I15
I3
I1
I61
I18
I2
tp66
I-100
s(I1
I2
I0
I1
I0
I6
I9
tp67
I-100
s(I64
I103
I2
I0
I63
I106
I0
tp68
I-100
s(I3
I106
I0
I0
I2
I105
I0
tp69
I-100
s(I10
I90
I0
I1
I9
I88
I9
tp70
I-100
s(I10
I114
I0
I0
I9
I112
I0
tp71
I-100
s(I27
I106
I0
I0
I26
I105
I0
tp72
I-100
s(I64
I123
I2
I0
I63
I126
I0
tp73
I-100
s(I10
I114
I0
I1
I9
I112
I9
tp74
I-100
s(I3
I103
I9
I1
I2
I103
I8
tp75
I-100
s(I3
I17
I0
I0
I2
I16
I0
tp76
I-100
s(I64
I18
I0
I0
I63
I21
I0
tp77
I-100
s(I30
I82
I9
I0
I29
I81
I9
tp78
I-100
s(I63
I12
I0
I0
I62
I15
I0
tp79
I-100
s(I30
I114
I9
I1
I29
I113
I9
tp80
I-100
s(I46
I93
I0
I1
I45
I92
I9
tp81
I-100
s(I18
I93
I0
I0
I17
I92
I0
tp82
I-100
s(I59
I0
I0
I0
I57
I4
I0
tp83
I1000
s(I64
I120
I5
I1
I63
I122
I3
tp84
I-100
s(I63
I0
I0
I0
I62
I4
I0
tp85
I-100
s(I59
I20
I0
I0
I57
I24
I0
tp86
I1000
s(I64
I21
I2
I0
I63
I24
I0
tp87
I-100
s(I27
I98
I0
I1
I26
I97
I9
tp88
I-100
s(I61
I126
I0
I0
I60
I1
I0
tp89
I-100
s(I63
I121
I0
I0
I62
I125
I0
tp90
I-100
s(I46
I113
I0
I1
I45
I112
I9
tp91
I-100
s(I61
I119
I0
I0
I60
I123
I0
tp92
I-100
s(I61
I124
I5
I1
I60
I126
I3
tp93
I-100
s(I18
I97
I0
I0
I17
I96
I0
tp94
I-100
s(I3
I98
I0
I0
I2
I101
I0
tp95
I-100
s(I5
I114
I2
I0
I3
I117
I0
tp96
I-100
s(I63
I20
I3
I1
I62
I23
I2
tp97
I-100
s(I3
I90
I0
I1
I2
I89
I9
tp98
I-100
s(I61
I10
I0
I0
I60
I14
I0
tp99
I-100
s(I70
I3
I0
I0
I64
I26
I0
tp100
I-100
s(I3
I110
I5
I1
I2
I111
I3
tp101
I-100
s(I64
I107
I0
I0
I63
I110
I0
tp102
I-100
s(I61
I22
I3
I1
I60
I25
I2
tp103
I-100
s(I59
I118
I5
I1
I57
I119
I3
tp104
I1000
s(I3
I95
I0
I1
I2
I93
I9
tp105
I-100
s(I64
I1
I2
I0
I63
I4
I0
tp106
I-100
s(I2
I3
I0
I0
I1
I7
I0
tp107
I-100
s(I59
I8
I3
I1
I57
I11
I2
tp108
I1000
s(I64
I3
I5
I1
I63
I5
I3
tp109
I-100
s(I59
I121
I0
I0
I57
I120
I0
tp110
I1000
s(I64
I116
I5
I1
I63
I118
I3
tp111
I-100
s(I30
I110
I9
I1
I29
I109
I9
tp112
I-100
s(I3
I110
I0
I0
I2
I113
I0
tp113
I-100
s(I14
I13
I2
I0
I12
I17
I0
tp114
I-100
s(I61
I14
I0
I0
I60
I18
I0
tp115
I-100
s(I18
I105
I0
I1
I17
I104
I9
tp116
I-100
s(I59
I113
I0
I0
I57
I117
I0
tp117
I1000
s(I63
I28
I0
I0
I62
I32
I0
tp118
I-100
s(I64
I111
I2
I0
I63
I114
I0
tp119
I-100
s(I59
I101
I3
I1
I57
I103
I2
tp120
I1000
s(I12
I17
I0
I0
I11
I21
I0
tp121
I-100
s(I46
I77
I0
I1
I45
I76
I9
tp122
I-100
s(I64
I99
I2
I0
I63
I102
I0
tp123
I-100
s(I64
I124
I5
I1
I63
I126
I3
tp124
I-100
s(I59
I4
I2
I0
I57
I7
I0
tp125
I1000
s(I0
I1
I0
I1
I0
I5
I9
tp126
I-100
s(I15
I113
I0
I1
I14
I112
I9
tp127
I-100
s(I5
I120
I0
I0
I3
I119
I0
tp128
I-100
s(I5
I115
I0
I1
I3
I119
I9
tp129
I-100
s(I3
I119
I8
I1
I2
I120
I6
tp130
I-100
s(I62
I93
I0
I0
I61
I92
I0
tp131
I-100
s(I61
I125
I5
I1
I60
I126
I3
tp132
I-100
s(I18
I93
I0
I1
I17
I92
I9
tp133
I-100
s(I38
I98
I0
I0
I37
I97
I0
tp134
I-100
s(I30
I94
I9
I0
I29
I93
I9
tp135
I-100
s(I3
I32
I0
I0
I2
I31
I0
tp136
I-100
s(I59
I13
I0
I0
I57
I12
I0
tp137
I1000
s(I63
I101
I0
I0
I62
I105
I0
tp138
I-100
s(I61
I7
I5
I1
I60
I9
I3
tp139
I-100
s(I0
I4
I5
I1
I70
I6
I3
tp140
I-100
s(I63
I4
I3
I1
I62
I7
I2
tp141
I-100
s(I59
I23
I6
I1
I57
I24
I5
tp142
I1000
s(I41
I17
I0
I0
I39
I21
I0
tp143
I-100
s(I63
I125
I6
I1
I62
I125
I5
tp144
I-100
s(I63
I8
I6
I1
I62
I9
I5
tp145
I-100
s(I27
I102
I0
I0
I26
I101
I0
tp146
I-100
s(I63
I4
I0
I0
I62
I3
I0
tp147
I-100
s(I64
I7
I5
I1
I63
I9
I3
tp148
I-100
s(I59
I104
I6
I1
I57
I104
I5
tp149
I1000
s(I3
I107
I9
I1
I2
I107
I8
tp150
I-100
s(I3
I86
I9
I1
I2
I86
I8
tp151
I-100
s(I70
I121
I0
I0
I64
I92
I0
tp152
I-100
s(I3
I110
I9
I1
I2
I110
I8
tp153
I-100
s(I62
I116
I3
I1
I61
I119
I2
tp154
I-100
s(I63
I28
I0
I0
I62
I31
I0
tp155
I-100
s(I18
I85
I0
I1
I17
I84
I9
tp156
I-100
s(I63
I8
I0
I1
I62
I12
I9
tp157
I-100
s(I64
I13
I2
I0
I63
I16
I0
tp158
I-100
s(I62
I120
I2
I0
I61
I123
I0
tp159
I-100
s(I63
I36
I3
I1
I62
I39
I2
tp160
I-100
s(I64
I127
I0
I0
I63
I1
I0
tp161
I-100
s(I38
I86
I0
I1
I37
I85
I9
tp162
I-100
s(I42
I35
I0
I1
I41
I38
I9
tp163
I-100
s(I27
I86
I0
I0
I26
I85
I0
tp164
I-100
s(I10
I94
I0
I1
I9
I92
I9
tp165
I-100
s(I6
I26
I2
I0
I5
I29
I0
tp166
I-100
s(I20
I5
I0
I1
I19
I9
I9
tp167
I-100
s(I3
I105
I6
I1
I2
I106
I5
tp168
I-100
s(I63
I16
I0
I0
I62
I20
I0
tp169
I-100
s(I61
I119
I0
I0
I60
I122
I0
tp170
I-100
s(I59
I118
I5
I1
I57
I120
I3
tp171
I1000
s(I33
I38
I0
I0
I32
I41
I0
tp172
I-100
s(I3
I102
I0
I1
I2
I101
I9
tp173
I-100
s(I0
I4
I0
I1
I70
I8
I9
tp174
I-100
s(I59
I12
I0
I0
I57
I11
I0
tp175
I1000
s(I3
I90
I9
I1
I2
I90
I8
tp176
I-100
s(I61
I103
I0
I0
I60
I107
I0
tp177
I-100
s(I18
I81
I0
I0
I17
I80
I0
tp178
I-100
s(I59
I109
I0
I0
I57
I113
I0
tp179
I1000
s(I62
I125
I0
I0
I61
I0
I0
tp180
I-100
s(I5
I115
I3
I1
I3
I117
I2
tp181
I-100
s(I59
I126
I5
I1
I57
I0
I3
tp182
I1000
s(I64
I6
I0
I0
I63
I9
I0
tp183
I-100
s(I3
I106
I3
I1
I2
I108
I2
tp184
I-100
s(I61
I22
I0
I0
I60
I25
I0
tp185
I-100
s(I59
I28
I0
I1
I57
I27
I9
tp186
I1000
s(I18
I89
I0
I0
I17
I88
I0
tp187
I-100
s(I63
I16
I0
I1
I62
I20
I9
tp188
I-100
s(I59
I22
I8
I1
I57
I22
I6
tp189
I1000
s(I30
I102
I9
I1
I29
I101
I9
tp190
I-100
s(I61
I112
I5
I1
I60
I114
I3
tp191
I-100
s(I30
I90
I9
I0
I29
I89
I9
tp192
I-100
s(I59
I0
I6
I1
I57
I0
I5
tp193
I1000
s(I36
I17
I2
I0
I35
I20
I0
tp194
I-100
s(I3
I103
I0
I1
I2
I101
I9
tp195
I-100
s(I27
I82
I0
I0
I26
I81
I0
tp196
I-100
s(I63
I8
I0
I0
I62
I11
I0
tp197
I-100
s(I63
I117
I0
I1
I62
I121
I9
tp198
I-100
s(I38
I78
I0
I0
I37
I77
I0
tp199
I-100
s(I5
I120
I0
I1
I3
I119
I9
tp200
I-100
s(I27
I114
I0
I1
I26
I113
I9
tp201
I-100
s(I59
I114
I5
I1
I57
I115
I3
tp202
I1000
s(I7
I113
I0
I1
I6
I112
I9
tp203
I-100
s(I64
I108
I5
I1
I63
I110
I3
tp204
I-100
s(I3
I104
I6
I1
I2
I105
I5
tp205
I-100
s(I3
I115
I5
I1
I2
I116
I3
tp206
I-100
s(I59
I125
I0
I0
I57
I0
I0
tp207
I1000
s(I70
I121
I0
I1
I64
I108
I9
tp208
I-100
s(I59
I4
I0
I0
I57
I8
I0
tp209
I1000
s(I59
I114
I5
I1
I57
I116
I3
tp210
I1000
s(I64
I5
I2
I0
I63
I8
I0
tp211
I-100
s(I30
I78
I9
I1
I29
I77
I9
tp212
I-100
s(I70
I2
I0
I0
I64
I123
I0
tp213
I-100
s(I3
I115
I8
I1
I2
I115
I6
tp214
I-100
s(I64
I118
I2
I0
I63
I121
I0
tp215
I-100
s(I63
I16
I0
I0
I62
I19
I0
tp216
I-100
s(I43
I8
I0
I0
I42
I11
I0
tp217
I-100
s(I62
I20
I0
I1
I61
I19
I9
tp218
I-100
s(I59
I7
I6
I1
I57
I7
I5
tp219
I1000
s(I70
I3
I0
I0
I64
I10
I0
tp220
I-100
s(I30
I110
I9
I0
I29
I109
I9
tp221
I-100
s(I61
I11
I5
I1
I60
I13
I3
tp222
I-100
s(I59
I20
I0
I0
I57
I19
I0
tp223
I1000
s(I63
I117
I0
I0
I62
I121
I0
tp224
I-100
s(I63
I121
I6
I1
I62
I121
I5
tp225
I-100
s(I59
I1
I0
I0
I57
I0
I0
tp226
I1000
s(I5
I119
I0
I0
I3
I118
I0
tp227
I-100
s(I35
I114
I0
I0
I34
I112
I0
tp228
I-100
s(I59
I21
I0
I0
I57
I20
I0
tp229
I1000
s(I63
I105
I0
I0
I62
I109
I0
tp230
I-100
s(I62
I4
I0
I0
I61
I3
I0
tp231
I-100
s(I42
I35
I0
I0
I41
I38
I0
tp232
I-100
s(I10
I86
I0
I1
I9
I84
I9
tp233
I-100
s(I20
I5
I0
I0
I19
I9
I0
tp234
I-100
s(I59
I19
I6
I1
I57
I19
I5
tp235
I1000
s(I59
I32
I0
I0
I57
I31
I0
tp236
I1000
s(I64
I0
I5
I1
I63
I1
I3
tp237
I-100
s(I59
I25
I0
I1
I57
I24
I9
tp238
I1000
s(I3
I114
I0
I1
I2
I113
I9
tp239
I-100
s(I59
I9
I5
I1
I57
I10
I3
tp240
I1000
s(I35
I94
I0
I0
I34
I92
I0
tp241
I-100
s(I3
I13
I0
I1
I2
I11
I9
tp242
I-100
s(I3
I91
I9
I1
I2
I91
I8
tp243
I-100
s(I59
I114
I0
I0
I57
I113
I0
tp244
I1000
s(I61
I18
I0
I0
I60
I21
I0
tp245
I-100
s(I46
I93
I0
I0
I45
I92
I0
tp246
I-100
s(I10
I106
I0
I1
I9
I104
I9
tp247
I-100
s(I59
I102
I5
I1
I57
I104
I3
tp248
I1000
s(I3
I97
I2
I0
I2
I100
I0
tp249
I-100
s(I55
I12
I2
I0
I54
I15
I0
tp250
I-100
s(I35
I110
I0
I0
I34
I108
I0
tp251
I-100
s(I3
I94
I0
I1
I2
I93
I9
tp252
I-100
s(I59
I123
I8
I1
I57
I123
I6
tp253
I1000
s(I3
I100
I8
I1
I2
I100
I6
tp254
I-100
s(I30
I94
I9
I1
I29
I93
I9
tp255
I-100
s(I27
I102
I0
I1
I26
I101
I9
tp256
I-100
s(I38
I106
I0
I0
I37
I105
I0
tp257
I-100
s(I63
I12
I0
I0
I62
I16
I0
tp258
I-100
s(I3
I115
I0
I1
I2
I113
I9
tp259
I-100
s(I60
I118
I0
I0
I59
I122
I0
tp260
I-100
s(I64
I99
I0
I0
I63
I102
I0
tp261
I-100
s(I2
I121
I0
I1
I1
I120
I9
tp262
I-100
s(I70
I2
I0
I0
I64
I115
I0
tp263
I-100
s(I59
I25
I0
I0
I57
I24
I0
tp264
I1000
s(I61
I96
I5
I1
I60
I98
I3
tp265
I-100
s(I5
I10
I0
I1
I3
I9
I9
tp266
I-100
s(I3
I5
I9
I1
I2
I5
I8
tp267
I-100
s(I60
I16
I6
I1
I59
I17
I5
tp268
I-100
s(I61
I6
I0
I0
I60
I10
I0
tp269
I-100
s(I38
I102
I0
I1
I37
I101
I9
tp270
I-100
s(I63
I32
I3
I1
I62
I35
I2
tp271
I-100
s(I10
I106
I0
I0
I9
I104
I0
tp272
I-100
s(I46
I113
I0
I0
I45
I112
I0
tp273
I-100
s(I63
I113
I0
I1
I62
I116
I9
tp274
I-100
s(I3
I107
I5
I1
I2
I108
I3
tp275
I-100
s(I62
I101
I0
I0
I61
I100
I0
tp276
I-100
s(I59
I10
I8
I1
I57
I10
I6
tp277
I1000
s(I61
I104
I5
I1
I60
I106
I3
tp278
I-100
s(I59
I27
I6
I1
I57
I28
I5
tp279
I1000
s(I5
I116
I5
I1
I3
I118
I3
tp280
I-100
s(I10
I94
I0
I0
I9
I92
I0
tp281
I-100
s(I61
I107
I0
I1
I60
I111
I9
tp282
I-100
s(I0
I4
I0
I1
I70
I7
I9
tp283
I-100
s(I18
I89
I0
I1
I17
I88
I9
tp284
I-100
s(I3
I113
I6
I1
I2
I113
I5
tp285
I-100
s(I3
I99
I0
I0
I2
I97
I0
tp286
I-100
s(I38
I114
I0
I1
I37
I113
I9
tp287
I-100
s(I3
I114
I5
I1
I2
I116
I3
tp288
I-100
s(I61
I127
I0
I0
I60
I2
I0
tp289
I-100
s(I5
I115
I9
I1
I3
I115
I8
tp290
I-100
s(I5
I118
I6
I1
I3
I119
I5
tp291
I-100
s(I3
I102
I0
I1
I2
I105
I9
tp292
I-100
s(I63
I0
I3
I1
I62
I3
I2
tp293
I-100
s(I61
I14
I2
I0
I60
I17
I0
tp294
I-100
s(I61
I19
I5
I1
I60
I21
I3
tp295
I-100
s(I59
I5
I0
I0
I57
I4
I0
tp296
I1000
s(I62
I105
I0
I1
I61
I104
I9
tp297
I-100
s(I60
I8
I6
I1
I59
I9
I5
tp298
I-100
s(I61
I111
I0
I0
I60
I115
I0
tp299
I-100
s(I12
I29
I0
I0
I11
I33
I0
tp300
I-100
s(I63
I12
I3
I1
I62
I15
I2
tp301
I-100
s(I3
I95
I0
I0
I2
I93
I0
tp302
I-100
s(I3
I99
I5
I1
I2
I101
I3
tp303
I-100
s(I3
I93
I6
I1
I2
I94
I5
tp304
I-100
s(I70
I3
I0
I0
I64
I104
I0
tp305
I-100
s(I62
I121
I0
I0
I61
I120
I0
tp306
I-100
s(I59
I27
I6
I1
I57
I27
I5
tp307
I1000
s(I60
I117
I6
I1
I59
I118
I5
tp308
I-100
s(I3
I102
I0
I0
I2
I105
I0
tp309
I-100
s(I38
I90
I0
I1
I37
I89
I9
tp310
I-100
s(I5
I114
I2
I0
I3
I118
I0
tp311
I-100
s(I59
I36
I0
I0
I57
I35
I0
tp312
I1000
s(I18
I81
I0
I1
I17
I80
I9
tp313
I-100
s(I61
I10
I0
I0
I60
I13
I0
tp314
I-100
s(I3
I115
I9
I1
I2
I115
I8
tp315
I-100
s(I3
I107
I8
I1
I2
I108
I6
tp316
I-100
s(I61
I115
I0
I1
I60
I118
I9
tp317
I-100
s(I61
I99
I0
I1
I60
I103
I9
tp318
I-100
s(I3
I112
I6
I1
I2
I113
I5
tp319
I-100
s(I3
I111
I5
I1
I2
I113
I3
tp320
I-100
s(I59
I105
I0
I0
I57
I109
I0
tp321
I1000
s(I59
I112
I6
I1
I57
I113
I5
tp322
I1000
s(I0
I1
I0
I0
I0
I5
I0
tp323
I-100
s(I38
I98
I0
I1
I37
I97
I9
tp324
I-100
s(I63
I8
I0
I0
I62
I12
I0
tp325
I-100
s(I59
I98
I0
I0
I57
I97
I0
tp326
I1000
s(I3
I114
I0
I0
I2
I117
I0
tp327
I-100
s(I3
I106
I0
I1
I2
I105
I9
tp328
I-100
s(I60
I113
I6
I1
I59
I114
I5
tp329
I-100
s(I62
I8
I0
I0
I61
I7
I0
tp330
I-100
s(I64
I126
I2
I0
I63
I0
I0
tp331
I-100
s(I3
I94
I9
I1
I2
I94
I8
tp332
I-100
s(I62
I85
I0
I0
I61
I84
I0
tp333
I-100
s(I2
I3
I2
I0
I1
I6
I0
tp334
I-100
s(I59
I126
I0
I0
I57
I125
I0
tp335
I1000
s(I55
I24
I2
I0
I54
I27
I0
tp336
I-100
s(I59
I5
I5
I1
I57
I7
I3
tp337
I1000
s(I59
I12
I3
I1
I57
I14
I2
tp338
I1000
s(I61
I95
I0
I0
I60
I99
I0
tp339
I-100
s(I59
I4
I0
I0
I57
I3
I0
tp340
I1000
s(I63
I121
I3
I1
I62
I124
I2
tp341
I-100
s(I3
I98
I0
I1
I2
I101
I9
tp342
I-100
s(I27
I78
I0
I0
I26
I77
I0
tp343
I-100
s(I3
I86
I0
I1
I2
I89
I9
tp344
I-100
s(I61
I2
I0
I0
I60
I6
I0
tp345
I-100
s(I61
I34
I2
I0
I60
I37
I0
tp346
I-100
s(I46
I81
I0
I1
I45
I80
I9
tp347
I-100
s(I3
I110
I0
I1
I2
I113
I9
tp348
I-100
s(I63
I36
I0
I0
I62
I40
I0
tp349
I-100
s(I64
I114
I2
I0
I63
I117
I0
tp350
I-100
s(I61
I99
I0
I0
I60
I103
I0
tp351
I-100
s(I64
I115
I2
I0
I63
I118
I0
tp352
I-100
s(I70
I3
I5
I1
I64
I13
I3
tp353
I-100
s(I3
I107
I0
I1
I2
I105
I9
tp354
I-100
s(I5
I119
I0
I1
I3
I118
I9
tp355
I-100
s(I38
I90
I0
I0
I37
I89
I0
tp356
I-100
s(I15
I36
I0
I0
I14
I39
I0
tp357
I-100
s(I59
I24
I0
I0
I57
I23
I0
tp358
I1000
s(I3
I4
I2
I0
I2
I7
I0
tp359
I-100
s(I59
I21
I5
I1
I57
I22
I3
tp360
I1000
s(I62
I16
I0
I0
I61
I15
I0
tp361
I-100
s(I3
I24
I2
I0
I2
I27
I0
tp362
I-100
s(I0
I122
I0
I0
I70
I120
I0
tp363
I-100
s(I3
I95
I9
I1
I2
I95
I8
tp364
I-100
s(I34
I19
I0
I0
I33
I23
I0
tp365
I-100
s(I18
I105
I0
I0
I17
I104
I0
tp366
I-100
s(I61
I107
I0
I0
I60
I111
I0
tp367
I-100
s(I0
I4
I0
I0
I70
I7
I0
tp368
I-100
s(I3
I94
I0
I1
I2
I97
I9
tp369
I-100
s(I3
I97
I6
I1
I2
I98
I5
tp370
I-100
s(I63
I125
I0
I0
I62
I0
I0
tp371
I-100
s(I1
I2
I2
I0
I0
I5
I0
tp372
I-100
s(I43
I36
I0
I1
I42
I39
I9
tp373
I-100
s(I59
I0
I0
I0
I57
I0
I0
tp374
I1000
s(I64
I95
I2
I0
I63
I98
I0
tp375
I-100
s(I10
I110
I0
I0
I9
I108
I0
tp376
I-100
s(I59
I117
I0
I0
I57
I116
I0
tp377
I1000
s(I3
I4
I0
I1
I2
I8
I9
tp378
I-100
s(I5
I119
I9
I1
I3
I119
I8
tp379
I-100
s(I61
I3
I5
I1
I60
I5
I3
tp380
I-100
s(I59
I101
I0
I0
I57
I100
I0
tp381
I1000
s(I3
I29
I0
I0
I2
I28
I0
tp382
I-100
s(I59
I106
I0
I0
I57
I105
I0
tp383
I1000
s(I38
I82
I0
I0
I37
I81
I0
tp384
I-100
s(I5
I117
I8
I1
I3
I117
I6
tp385
I-100
s(I3
I91
I0
I0
I2
I89
I0
tp386
I-100
s(I33
I10
I0
I1
I32
I13
I9
tp387
I-100
s(I0
I121
I0
I1
I70
I120
I9
tp388
I-100
s(I63
I32
I0
I1
I62
I36
I9
tp389
I-100
s(I18
I101
I0
I1
I17
I100
I9
tp390
I-100
s(I27
I110
I0
I0
I26
I109
I0
tp391
I-100
s(I3
I104
I8
I1
I2
I104
I6
tp392
I-100
s(I3
I102
I3
I1
I2
I104
I2
tp393
I-100
s(I62
I12
I0
I0
I61
I11
I0
tp394
I-100
s(I18
I77
I0
I0
I17
I76
I0
tp395
I-100
s(I10
I78
I0
I1
I9
I76
I9
tp396
I-100
s(I30
I78
I9
I0
I29
I77
I9
tp397
I-100
s(I3
I98
I9
I1
I2
I98
I8
tp398
I-100
s(I61
I115
I0
I0
I60
I119
I0
tp399
I-100
s(I59
I125
I3
I1
I57
I127
I2
tp400
I1000
s(I63
I109
I2
I0
I62
I112
I0
tp401
I-100
s(I5
I116
I9
I1
I3
I116
I8
tp402
I-100
s(I3
I110
I3
I1
I2
I112
I2
tp403
I-100
s(I63
I121
I0
I0
I62
I124
I0
tp404
I-100
s(I38
I86
I0
I0
I37
I85
I0
tp405
I-100
s(I18
I109
I0
I1
I17
I108
I9
tp406
I-100
s(I70
I3
I0
I1
I64
I11
I9
tp407
I-100
s(I70
I121
I0
I1
I64
I84
I9
tp408
I-100
s(I55
I32
I2
I0
I54
I35
I0
tp409
I-100
s(I1
I2
I0
I0
I0
I6
I0
tp410
I-100
s(I62
I85
I0
I1
I61
I84
I9
tp411
I-100
s(I10
I102
I0
I1
I9
I100
I9
tp412
I-100
s(I62
I24
I0
I0
I61
I23
I0
tp413
I-100
s(I47
I36
I2
I0
I46
I39
I0
tp414
I-100
s(I3
I82
I0
I1
I2
I81
I9
tp415
I-100
s(I70
I121
I0
I1
I64
I96
I9
tp416
I-100
s(I35
I110
I0
I1
I34
I108
I9
tp417
I-100
s(I1
I2
I0
I1
I0
I5
I9
tp418
I-100
s(I63
I0
I0
I0
I62
I3
I0
tp419
I-100
s(I7
I109
I0
I0
I6
I108
I0
tp420
I-100
s(I61
I23
I5
I1
I60
I25
I3
tp421
I-100
s(I61
I30
I0
I0
I60
I33
I0
tp422
I-100
s(I61
I121
I5
I1
I60
I122
I3
tp423
I-100
s(I3
I90
I0
I1
I2
I93
I9
tp424
I-100
s(I63
I113
I0
I1
I62
I117
I9
tp425
I-100
s(I38
I102
I0
I0
I37
I101
I0
tp426
I-100
s(I61
I120
I5
I1
I60
I122
I3
tp427
I-100
s(I61
I0
I5
I1
I60
I1
I3
tp428
I-100
s(I35
I106
I0
I0
I34
I104
I0
tp429
I-100
s(I63
I4
I0
I0
I62
I7
I0
tp430
I-100
s(I42
I19
I0
I0
I41
I22
I0
tp431
I-100
s(I59
I110
I5
I1
I57
I112
I3
tp432
I1000
s(I2
I120
I9
I1
I1
I120
I8
tp433
I-100
s(I63
I24
I0
I0
I62
I28
I0
tp434
I-100
s(I59
I122
I5
I1
I57
I123
I3
tp435
I1000
s(I62
I109
I0
I0
I61
I108
I0
tp436
I-100
s(I70
I3
I0
I0
I64
I30
I0
tp437
I-100
s(I59
I124
I6
I1
I57
I125
I5
tp438
I1000
s(I45
I34
I2
I0
I44
I37
I0
tp439
I-100
s(I5
I116
I8
I1
I3
I116
I6
tp440
I-100
s(I64
I2
I2
I0
I63
I5
I0
tp441
I-100
s(I59
I0
I3
I1
I57
I3
I2
tp442
I1000
s(I59
I122
I5
I1
I57
I124
I3
tp443
I1000
s(I62
I0
I0
I0
I61
I127
I0
tp444
I-100
s(I63
I113
I0
I0
I62
I117
I0
tp445
I-100
s(I2
I3
I0
I1
I1
I6
I9
tp446
I-100
s(I30
I98
I9
I0
I29
I97
I9
tp447
I-100
s(I62
I0
I0
I0
I61
I3
I0
tp448
I-100
s(I38
I110
I0
I0
I37
I109
I0
tp449
I-100
s(I34
I19
I0
I1
I33
I23
I9
tp450
I-100
s(I5
I118
I6
I1
I3
I118
I5
tp451
I-100
s(I3
I109
I6
I1
I2
I109
I5
tp452
I-100
s(I62
I105
I0
I0
I61
I104
I0
tp453
I-100
s(I61
I117
I8
I1
I60
I118
I6
tp454
I-100
s(I63
I28
I0
I1
I62
I32
I9
tp455
I-100
s(I63
I8
I3
I1
I62
I11
I2
tp456
I-100
s(I10
I90
I0
I0
I9
I88
I0
tp457
I-100
s(I0
I4
I6
I1
I0
I4
I5
tp458
I-100
s(I18
I113
I0
I0
I17
I112
I0
tp459
I-100
s(I70
I121
I0
I1
I64
I104
I9
tp460
I-100
s(I3
I13
I0
I1
I2
I12
I9
tp461
I-100
s(I64
I11
I5
I1
I63
I13
I3
tp462
I-100
s(I59
I37
I5
I1
I57
I38
I3
tp463
I1000
s(I64
I127
I2
I0
I63
I1
I0
tp464
I-100
s(I61
I115
I0
I1
I60
I119
I9
tp465
I-100
s(I10
I82
I0
I0
I9
I80
I0
tp466
I-100
s(I70
I3
I0
I0
I64
I127
I0
tp467
I-100
s(I63
I4
I0
I1
I62
I8
I9
tp468
I-100
s(I59
I121
I0
I0
I57
I125
I0
tp469
I1000
s(I59
I126
I9
I1
I57
I126
I8
tp470
I1000
s(I64
I26
I0
I0
I63
I29
I0
tp471
I-100
s(I62
I113
I0
I0
I61
I112
I0
tp472
I-100
s(I64
I119
I0
I0
I63
I122
I0
tp473
I-100
s(I3
I120
I8
I1
I2
I120
I6
tp474
I-100
s(I38
I78
I0
I1
I37
I77
I9
tp475
I-100
s(I0
I4
I3
I1
I70
I6
I2
tp476
I-100
s(I3
I99
I9
I1
I2
I99
I8
tp477
I-100
s(I59
I1
I0
I1
I57
I0
I9
tp478
I1000
s(I43
I36
I0
I0
I42
I39
I0
tp479
I-100
s(I59
I12
I2
I0
I57
I15
I0
tp480
I1000
s(I12
I5
I0
I0
I11
I9
I0
tp481
I-100
s(I3
I4
I0
I0
I2
I8
I0
tp482
I-100
s(I3
I110
I0
I1
I2
I109
I9
tp483
I-100
s(I59
I120
I6
I1
I57
I121
I5
tp484
I1000
s(I61
I116
I5
I1
I60
I118
I3
tp485
I-100
s(I59
I7
I6
I1
I57
I8
I5
tp486
I1000
s(I18
I109
I0
I0
I17
I108
I0
tp487
I-100
s(I59
I122
I0
I0
I57
I121
I0
tp488
I1000
s(I63
I36
I0
I1
I62
I40
I9
tp489
I-100
s(I3
I108
I8
I1
I2
I108
I6
tp490
I-100
s(I59
I94
I0
I0
I57
I93
I0
tp491
I1000
s(I59
I4
I3
I1
I57
I6
I2
tp492
I1000
s(I5
I115
I2
I0
I3
I118
I0
tp493
I-100
s(I3
I105
I6
I1
I2
I105
I5
tp494
I-100
s(I61
I15
I5
I1
I60
I17
I3
tp495
I-100
s(I3
I96
I8
I1
I2
I96
I6
tp496
I-100
s(I30
I106
I9
I0
I29
I105
I9
tp497
I-100
s(I63
I0
I6
I1
I62
I1
I5
tp498
I-100
s(I3
I112
I8
I1
I2
I112
I6
tp499
I-100
s(I59
I28
I0
I0
I57
I27
I0
tp500
I1000
s(I43
I8
I0
I1
I42
I11
I9
tp501
I-100
s(I63
I109
I3
I1
I62
I112
I2
tp502
I-100
s(I62
I97
I0
I0
I61
I96
I0
tp503
I-100
s(I46
I85
I0
I1
I45
I84
I9
tp504
I-100
s(I63
I4
I0
I0
I62
I8
I0
tp505
I-100
s(I7
I113
I0
I0
I6
I112
I0
tp506
I-100
s(I30
I82
I9
I1
I29
I81
I9
tp507
I-100
s(I3
I103
I0
I0
I2
I101
I0
tp508
I-100
s(I62
I28
I0
I0
I61
I27
I0
tp509
I-100
s(I62
I35
I3
I1
I61
I38
I2
tp510
I-100
s(I3
I111
I0
I1
I2
I109
I9
tp511
I-100
s(I63
I20
I0
I0
I62
I23
I0
tp512
I-100
s(I61
I123
I0
I0
I60
I127
I0
tp513
I-100
s(I59
I110
I0
I0
I57
I109
I0
tp514
I1000
s(I10
I78
I0
I0
I9
I76
I0
tp515
I-100
s(I7
I109
I0
I1
I6
I108
I9
tp516
I-100
s(I18
I101
I0
I0
I17
I100
I0
tp517
I-100
s(I61
I2
I0
I1
I60
I6
I9
tp518
I-100
s(I3
I13
I0
I0
I2
I12
I0
tp519
I-100
s(I51
I35
I0
I0
I50
I39
I0
tp520
I-100
s(I64
I107
I2
I0
I63
I110
I0
tp521
I-100
s(I59
I98
I0
I1
I57
I97
I9
tp522
I1000
s(I46
I109
I0
I1
I45
I108
I9
tp523
I-100
s(I27
I94
I0
I0
I26
I93
I0
tp524
I-100
s(I3
I115
I0
I0
I2
I113
I0
tp525
I-100
s(I63
I32
I0
I0
I62
I36
I0
tp526
I-100
s(I3
I113
I2
I0
I2
I116
I0
tp527
I-100
s(I62
I125
I0
I0
I61
I124
I0
tp528
I-100
s(I61
I107
I0
I1
I60
I110
I9
tp529
I-100
s(I62
I0
I0
I0
I61
I0
I0
tp530
I-100
s(I1
I4
I8
I1
I0
I4
I6
tp531
I-100
s(I30
I90
I9
I1
I29
I89
I9
tp532
I-100
s(I15
I113
I0
I0
I14
I112
I0
tp533
I-100
s(I30
I114
I9
I0
I29
I113
I9
tp534
I-100
s(I3
I111
I8
I1
I2
I112
I6
tp535
I-100
s(I3
I107
I0
I0
I2
I105
I0
tp536
I-100
s(I59
I106
I0
I1
I57
I105
I9
tp537
I1000
s(I3
I115
I5
I1
I2
I117
I3
tp538
I-100
s(I3
I87
I5
I1
I2
I88
I3
tp539
I-100
s(I3
I103
I8
I1
I2
I104
I6
tp540
I-100
s(I61
I125
I8
I1
I60
I126
I6
tp541
I-100
s(I64
I14
I0
I0
I63
I17
I0
tp542
I-100
s(I27
I114
I0
I0
I26
I113
I0
tp543
I-100
s(I27
I78
I0
I1
I26
I77
I9
tp544
I-100
s(I3
I86
I0
I0
I2
I89
I0
tp545
I-100
s(I61
I27
I5
I1
I60
I29
I3
tp546
I-100
s(I59
I125
I0
I0
I57
I124
I0
tp547
I1000
s(I59
I126
I0
I1
I57
I125
I9
tp548
I1000
s(I18
I97
I0
I1
I17
I96
I9
tp549
I-100
s(I59
I9
I5
I1
I57
I11
I3
tp550
I1000
s(I3
I110
I5
I1
I2
I112
I3
tp551
I-100
s(I43
I85
I0
I0
I42
I84
I0
tp552
I-100
s(I59
I99
I8
I1
I57
I99
I6
tp553
I1000
s(I35
I114
I0
I1
I34
I112
I9
tp554
I-100
s(I59
I20
I3
I1
I57
I22
I2
tp555
I1000
s(I59
I93
I0
I0
I57
I97
I0
tp556
I1000
s(I3
I102
I9
I1
I2
I102
I8
tp557
I-100
s(I59
I8
I0
I0
I57
I12
I0
tp558
I1000
s(I61
I111
I0
I1
I60
I115
I9
tp559
I-100
s(I61
I21
I0
I0
I60
I25
I0
tp560
I-100
s(I3
I14
I8
I1
I2
I14
I6
tp561
I-100
s(I70
I3
I0
I0
I64
I14
I0
tp562
I-100
s(I35
I106
I0
I1
I34
I104
I9
tp563
I-100
s(I33
I10
I0
I0
I32
I13
I0
tp564
I-100
s(I59
I19
I6
I1
I57
I20
I5
tp565
I1000
s(I64
I22
I0
I0
I63
I25
I0
tp566
I-100
s(I10
I102
I0
I0
I9
I100
I0
tp567
I-100
s(I2
I4
I3
I1
I1
I6
I2
tp568
I-100
s(I61
I100
I5
I1
I60
I102
I3
tp569
I-100
s(I5
I117
I6
I1
I3
I118
I5
tp570
I-100
s(I3
I114
I0
I1
I2
I117
I9
tp571
I-100
s(I10
I110
I0
I1
I9
I108
I9
tp572
I-100
s(I59
I8
I0
I0
I57
I7
I0
tp573
I1000
s(I60
I121
I6
I1
I59
I122
I5
tp574
I-100
s(I64
I112
I5
I1
I63
I114
I3
tp575
I-100
s(I61
I34
I0
I0
I60
I37
I0
tp576
I-100
s(I62
I20
I0
I0
I61
I19
I0
tp577
I-100
s(I3
I86
I0
I1
I2
I85
I9
tp578
I-100
s(I62
I8
I0
I1
I61
I7
I9
tp579
I-100
s(I64
I9
I2
I0
I63
I12
I0
tp580
I-100
s(I46
I81
I0
I0
I45
I80
I0
tp581
I-100
s(I3
I91
I0
I1
I2
I89
I9
tp582
I-100
s(I61
I108
I5
I1
I60
I110
I3
tp583
I-100
s(I42
I7
I0
I0
I41
I10
I0
tp584
I-100
s(I63
I109
I0
I1
I62
I113
I9
tp585
I-100
s(I63
I20
I0
I0
I62
I24
I0
tp586
I-100
s(I2
I3
I0
I1
I1
I7
I9
tp587
I-100
s(I34
I11
I0
I0
I33
I15
I0
tp588
I-100
s(I50
I7
I3
I1
I48
I9
I2
tp589
I-100
s(I63
I20
I0
I1
I62
I24
I9
tp590
I-100
s(I59
I106
I8
I1
I57
I107
I6
tp591
I1000
s(I3
I111
I9
I1
I2
I111
I8
tp592
I-100
s(I3
I92
I8
I1
I2
I92
I6
tp593
I-100
s(I64
I10
I0
I0
I63
I13
I0
tp594
I-100
s(I64
I122
I2
I0
I63
I125
I0
tp595
I-100
s(I3
I114
I9
I1
I2
I114
I8
tp596
I-100
s(I61
I2
I0
I0
I60
I5
I0
tp597
I-100
s(I18
I85
I0
I0
I17
I84
I0
tp598
I-100
s(I59
I105
I0
I0
I57
I104
I0
tp599
I1000
s(I7
I105
I0
I0
I6
I104
I0
tp600
I-100
s(I70
I3
I3
I1
I64
I118
I2
tp601
I-100
s(I3
I113
I6
I1
I2
I114
I5
tp602
I-100
s(I59
I97
I0
I0
I57
I101
I0
tp603
I1000
s(I62
I31
I3
I1
I61
I34
I2
tp604
I-100
s(I61
I22
I0
I0
I60
I26
I0
tp605
I-100
s(I59
I117
I0
I0
I57
I121
I0
tp606
I1000
s(I61
I31
I5
I1
I60
I33
I3
tp607
I-100
s(I59
I104
I6
I1
I57
I105
I5
tp608
I1000
s(I63
I16
I3
I1
I62
I19
I2
tp609
I-100
s(I5
I5
I2
I0
I3
I8
I0
tp610
I-100
s(I3
I111
I0
I0
I2
I109
I0
tp611
I-100
s(I62
I113
I0
I1
I61
I112
I9
tp612
I-100
s(I59
I118
I0
I0
I57
I117
I0
tp613
I1000
s(I60
I125
I6
I1
I59
I126
I5
tp614
I-100
s(I59
I113
I0
I1
I57
I117
I9
tp615
I1000
s(I63
I12
I6
I1
I62
I13
I5
tp616
I-100
s(I0
I4
I6
I1
I0
I5
I5
tp617
I-100
s(I3
I82
I0
I0
I2
I81
I0
tp618
I-100
s(I59
I9
I0
I0
I57
I8
I0
tp619
I1000
s(I61
I103
I3
I1
I60
I106
I2
tp620
I-100
s(I64
I15
I5
I1
I63
I17
I3
tp621
I-100
s(I70
I3
I0
I0
I64
I6
I0
tp622
I-100
s(I3
I5
I0
I0
I2
I8
I0
tp623
I-100
s(I61
I109
I5
I1
I60
I110
I3
tp624
I-100
s(I60
I12
I6
I1
I59
I13
I5
tp625
I-100
s(I27
I98
I0
I0
I26
I97
I0
tp626
I-100
s(I62
I0
I3
I1
I61
I2
I2
tp627
I-100
s(I64
I119
I2
I0
I63
I122
I0
tp628
I-100
s(I3
I107
I5
I1
I2
I109
I3
tp629
I-100
s(I3
I82
I9
I1
I2
I82
I8
tp630
I-100
s(I46
I109
I0
I0
I45
I108
I0
tp631
I-100
s(I5
I116
I5
I1
I3
I117
I3
tp632
I-100
s(I3
I111
I5
I1
I2
I112
I3
tp633
I-100
s.