(dp0
(I7
I24
I2
I0
I7
I25
I0
tp1
I-100
s(I7
I16
I3
I1
I7
I17
I2
tp2
I-100
s(I10
I3
I9
I0
I10
I3
I9
tp3
I-100
s(I4
I11
I6
I1
I3
I11
I5
tp4
I-100
s(I6
I23
I3
I1
I6
I24
I2
tp5
I-100
s(I7
I17
I2
I0
I7
I18
I0
tp6
I-100
s(I7
I18
I5
I1
I7
I19
I3
tp7
I-100
s(I4
I11
I3
I1
I3
I11
I2
tp8
I-100
s(I2
I15
I5
I1
I16
I22
I9
tp9
I-100
s(I5
I22
I5
I1
I5
I23
I9
tp10
I-100
s(I16
I12
I2
I0
I16
I13
I0
tp11
I1000
s(I16
I11
I5
I1
I16
I12
I9
tp12
I-100
s(I7
I18
I3
I1
I7
I19
I2
tp13
I-100
s(I4
I7
I8
I1
I3
I7
I6
tp14
I-100
s(I6
I23
I5
I1
I6
I24
I3
tp15
I-100
s(I10
I25
I0
I0
I10
I26
I0
tp16
I-100
s(I7
I23
I2
I0
I7
I24
I0
tp17
I-100
s(I9
I22
I3
I1
I9
I23
I2
tp18
I-100
s(I4
I16
I0
I0
I3
I16
I0
tp19
I-100
s(I4
I9
I8
I1
I3
I9
I6
tp20
I-100
s(I8
I17
I2
I1
I8
I18
I9
tp21
I-100
s(I5
I12
I0
I1
I5
I11
I9
tp22
I-100
s(I6
I22
I3
I1
I6
I23
I2
tp23
I-100
s(I6
I16
I5
I1
I6
I17
I9
tp24
I-100
s(I4
I7
I2
I0
I3
I7
I0
tp25
I-100
s(I8
I22
I0
I0
I8
I23
I0
tp26
I-100
s(I4
I21
I8
I1
I3
I21
I6
tp27
I-100
s(I9
I19
I3
I1
I8
I19
I2
tp28
I-100
s(I7
I23
I6
I1
I6
I23
I5
tp29
I-100
s(I7
I17
I5
I1
I7
I18
I9
tp30
I-100
s(I10
I3
I9
I1
I10
I3
I9
tp31
I-100
s(I5
I22
I5
I1
I5
I23
I3
tp32
I-100
s(I16
I18
I0
I0
I16
I19
I0
tp33
I-100
s(I4
I24
I5
I1
I3
I24
I3
tp34
I-100
s(I4
I20
I6
I1
I3
I20
I5
tp35
I-100
s(I5
I22
I3
I1
I5
I23
I2
tp36
I-100
s(I4
I14
I0
I0
I3
I13
I0
tp37
I-100
s(I4
I19
I0
I1
I3
I19
I9
tp38
I-100
s(I4
I23
I5
I1
I4
I23
I3
tp39
I-100
s(I6
I16
I5
I1
I5
I17
I9
tp40
I-100
s(I4
I22
I8
I1
I3
I22
I6
tp41
I-100
s(I7
I17
I6
I1
I6
I17
I5
tp42
I-100
s(I5
I7
I0
I0
I5
I6
I0
tp43
I-100
s(I16
I15
I3
I1
I16
I15
I2
tp44
I-100
s(I7
I20
I5
I1
I7
I21
I9
tp45
I-100
s(I4
I11
I0
I0
I3
I11
I0
tp46
I-100
s(I6
I23
I5
I1
I5
I24
I3
tp47
I-100
s(I8
I16
I2
I0
I8
I17
I0
tp48
I-100
s(I6
I17
I5
I1
I6
I18
I3
tp49
I-100
s(I8
I16
I5
I1
I8
I17
I3
tp50
I-100
s(I4
I10
I8
I1
I3
I10
I6
tp51
I-100
s(I7
I19
I6
I1
I6
I19
I5
tp52
I-100
s(I8
I19
I2
I0
I8
I20
I0
tp53
I-100
s(I5
I23
I3
I1
I4
I24
I2
tp54
I-100
s(I6
I19
I3
I1
I6
I20
I2
tp55
I-100
s(I8
I17
I2
I0
I8
I18
I0
tp56
I-100
s(I6
I18
I5
I1
I5
I19
I9
tp57
I-100
s(I7
I24
I6
I1
I6
I24
I5
tp58
I-100
s(I4
I12
I5
I1
I4
I13
I3
tp59
I-100
s(I2
I15
I0
I0
I2
I16
I0
tp60
I-100
s(I7
I25
I6
I1
I6
I25
I5
tp61
I-100
s(I9
I26
I0
I0
I9
I27
I0
tp62
I-100
s(I9
I22
I2
I0
I9
I23
I0
tp63
I-100
s(I16
I18
I6
I1
I16
I18
I5
tp64
I1000
s(I4
I9
I3
I1
I3
I9
I2
tp65
I-100
s(I4
I23
I2
I1
I3
I24
I9
tp66
I-100
s(I10
I12
I9
I0
I10
I12
I9
tp67
I-100
s(I9
I16
I2
I0
I8
I17
I0
tp68
I-100
s(I4
I19
I6
I1
I3
I19
I5
tp69
I-100
s(I6
I24
I3
I1
I6
I25
I2
tp70
I-100
s(I10
I12
I9
I1
I10
I12
I9
tp71
I-100
s(I4
I19
I5
I1
I4
I19
I9
tp72
I-100
s(I5
I24
I3
I1
I5
I25
I2
tp73
I-100
s(I8
I25
I6
I1
I7
I26
I5
tp74
I-100
s(I5
I11
I0
I1
I5
I10
I9
tp75
I-100
s(I16
I9
I3
I1
I16
I9
I2
tp76
I1000
s(I5
I4
I0
I0
I5
I3
I0
tp77
I-100
s(I4
I21
I6
I1
I3
I22
I5
tp78
I-100
s(I4
I24
I6
I1
I4
I24
I5
tp79
I-100
s(I4
I23
I5
I1
I4
I24
I9
tp80
I-100
s(I8
I19
I5
I1
I8
I19
I3
tp81
I-100
s(I4
I21
I0
I1
I4
I22
I9
tp82
I-100
s(I4
I24
I0
I0
I4
I24
I0
tp83
I-100
s(I4
I23
I9
I1
I3
I23
I8
tp84
I-100
s(I5
I23
I0
I0
I4
I24
I0
tp85
I-100
s(I6
I22
I2
I1
I6
I23
I9
tp86
I-100
s(I16
I17
I6
I1
I16
I17
I5
tp87
I1000
s(I4
I12
I0
I0
I4
I13
I0
tp88
I-100
s(I3
I14
I0
I0
I2
I13
I0
tp89
I-100
s(I9
I20
I0
I0
I8
I21
I0
tp90
I-100
s(I10
I7
I9
I0
I10
I7
I9
tp91
I-100
s(I6
I22
I2
I0
I6
I23
I0
tp92
I-100
s(I5
I11
I0
I0
I5
I10
I0
tp93
I-100
s(I6
I16
I5
I1
I6
I17
I3
tp94
I-100
s(I16
I14
I9
I1
I16
I14
I8
tp95
I1000
s(I8
I17
I5
I1
I8
I17
I9
tp96
I-100
s(I8
I25
I0
I0
I8
I26
I0
tp97
I-100
s(I5
I16
I5
I1
I5
I17
I3
tp98
I-100
s(I6
I19
I5
I1
I6
I20
I9
tp99
I-100
s(I16
I9
I0
I0
I16
I10
I0
tp100
I-100
s(I4
I12
I2
I0
I3
I13
I0
tp101
I-100
s(I16
I16
I8
I1
I16
I16
I6
tp102
I1000
s(I6
I23
I5
I1
I5
I24
I9
tp103
I-100
s(I16
I15
I6
I1
I16
I15
I5
tp104
I1000
s(I4
I21
I5
I1
I4
I21
I9
tp105
I-100
s(I6
I17
I5
I1
I5
I18
I9
tp106
I-100
s(I10
I10
I9
I0
I10
I10
I9
tp107
I-100
s(I16
I11
I6
I1
I16
I11
I5
tp108
I1000
s(I5
I10
I0
I0
I5
I9
I0
tp109
I-100
s(I10
I6
I9
I0
I10
I6
I9
tp110
I-100
s(I16
I15
I9
I1
I16
I15
I8
tp111
I1000
s(I7
I21
I3
I1
I7
I22
I2
tp112
I-100
s(I7
I18
I5
I1
I7
I19
I9
tp113
I-100
s(I7
I21
I5
I1
I6
I21
I9
tp114
I-100
s(I4
I20
I5
I1
I4
I20
I9
tp115
I-100
s(I4
I23
I0
I0
I3
I24
I0
tp116
I-100
s(I16
I15
I8
I1
I16
I15
I6
tp117
I1000
s(I6
I18
I5
I1
I6
I19
I3
tp118
I-100
s(I16
I20
I0
I0
I16
I21
I0
tp119
I-100
s(I10
I7
I9
I1
I10
I7
I9
tp120
I-100
s(I10
I20
I5
I1
I10
I21
I9
tp121
I-100
s(I9
I9
I0
I0
I9
I8
I0
tp122
I-100
s(I4
I13
I6
I1
I3
I13
I5
tp123
I-100
s(I4
I18
I5
I1
I4
I18
I3
tp124
I-100
s(I4
I9
I5
I1
I3
I9
I9
tp125
I-100
s(I16
I14
I0
I0
I16
I15
I0
tp126
I1000
s(I6
I21
I5
I1
I6
I22
I9
tp127
I-100
s(I4
I10
I0
I0
I3
I9
I0
tp128
I-100
s(I4
I11
I8
I1
I3
I11
I6
tp129
I-100
s(I6
I17
I5
I1
I6
I17
I9
tp130
I-100
s(I6
I20
I5
I1
I6
I21
I9
tp131
I-100
s(I5
I5
I0
I1
I5
I4
I9
tp132
I-100
s(I4
I10
I2
I1
I3
I10
I9
tp133
I-100
s(I10
I5
I9
I0
I10
I5
I9
tp134
I-100
s(I10
I8
I9
I0
I10
I8
I9
tp135
I-100
s(I16
I12
I8
I1
I16
I12
I6
tp136
I1000
s(I9
I18
I2
I0
I8
I19
I0
tp137
I-100
s(I10
I5
I9
I1
I10
I5
I9
tp138
I-100
s(I5
I9
I0
I0
I5
I8
I0
tp139
I-100
s(I4
I8
I8
I1
I3
I8
I6
tp140
I-100
s(I4
I12
I6
I1
I3
I12
I5
tp141
I-100
s(I16
I13
I5
I1
I16
I13
I3
tp142
I1000
s(I5
I8
I0
I0
I5
I7
I0
tp143
I-100
s(I4
I21
I0
I1
I3
I22
I9
tp144
I-100
s(I7
I16
I3
I1
I7
I17
I9
tp145
I-100
s(I4
I8
I0
I0
I3
I7
I0
tp146
I-100
s(I16
I11
I2
I0
I16
I12
I0
tp147
I-100
s(I7
I19
I5
I1
I7
I20
I9
tp148
I-100
s(I6
I24
I5
I1
I5
I25
I3
tp149
I-100
s(I7
I21
I5
I1
I7
I22
I9
tp150
I-100
s(I7
I25
I3
I1
I7
I26
I2
tp151
I-100
s(I4
I23
I5
I1
I3
I23
I9
tp152
I-100
s(I6
I24
I5
I1
I6
I24
I3
tp153
I-100
s(I4
I19
I8
I1
I3
I19
I6
tp154
I-100
s(I4
I22
I5
I1
I3
I23
I9
tp155
I-100
s(I4
I9
I3
I1
I3
I10
I2
tp156
I-100
s(I7
I26
I6
I1
I6
I26
I5
tp157
I-100
s(I4
I6
I2
I0
I3
I6
I0
tp158
I-100
s(I4
I23
I2
I0
I4
I24
I0
tp159
I-100
s(I4
I23
I5
I1
I4
I23
I9
tp160
I-100
s(I7
I16
I5
I1
I7
I17
I9
tp161
I-100
s(I8
I16
I5
I1
I8
I17
I9
tp162
I-100
s(I7
I20
I5
I1
I7
I21
I3
tp163
I-100
s(I4
I23
I6
I1
I3
I23
I5
tp164
I-100
s(I7
I17
I5
I1
I7
I18
I3
tp165
I-100
s(I6
I20
I5
I1
I6
I21
I3
tp166
I-100
s(I16
I9
I2
I0
I16
I10
I0
tp167
I-100
s(I4
I12
I5
I1
I3
I12
I3
tp168
I-100
s(I16
I14
I3
I1
I16
I15
I2
tp169
I-100
s(I9
I25
I3
I1
I9
I26
I2
tp170
I-100
s(I6
I18
I5
I1
I6
I19
I9
tp171
I-100
s(I4
I16
I8
I1
I3
I16
I6
tp172
I-100
s(I4
I13
I8
I1
I4
I13
I6
tp173
I-100
s(I6
I24
I5
I1
I6
I25
I3
tp174
I-100
s(I3
I15
I0
I0
I3
I16
I0
tp175
I-100
s(I4
I17
I0
I0
I4
I17
I0
tp176
I-100
s(I5
I8
I0
I1
I5
I7
I9
tp177
I-100
s(I5
I12
I0
I0
I5
I11
I0
tp178
I-100
s(I4
I12
I5
I1
I3
I12
I9
tp179
I-100
s(I6
I22
I5
I1
I6
I23
I9
tp180
I-100
s(I10
I10
I9
I1
I10
I10
I9
tp181
I-100
s(I4
I23
I8
I1
I3
I23
I6
tp182
I-100
s(I16
I13
I8
I1
I16
I13
I6
tp183
I1000
s(I4
I24
I9
I1
I3
I24
I8
tp184
I-100
s(I5
I20
I5
I1
I5
I21
I3
tp185
I-100
s(I6
I22
I5
I1
I5
I23
I9
tp186
I-100
s(I6
I23
I3
I1
I6
I24
I9
tp187
I-100
s(I4
I9
I9
I1
I3
I9
I8
tp188
I-100
s(I8
I21
I3
I1
I7
I22
I2
tp189
I-100
s(I10
I19
I0
I0
I10
I20
I0
tp190
I-100
s(I6
I17
I5
I1
I6
I18
I9
tp191
I-100
s(I16
I14
I8
I1
I16
I14
I6
tp192
I1000
s(I8
I20
I5
I1
I8
I21
I9
tp193
I-100
s(I4
I21
I6
I1
I3
I21
I5
tp194
I-100
s(I5
I6
I0
I1
I5
I5
I9
tp195
I-100
s(I4
I18
I6
I1
I3
I18
I5
tp196
I-100
s(I4
I10
I2
I0
I3
I11
I0
tp197
I-100
s(I7
I25
I3
I1
I7
I26
I9
tp198
I-100
s(I5
I21
I5
I1
I4
I22
I3
tp199
I-100
s(I4
I18
I0
I0
I3
I18
I0
tp200
I-100
s(I4
I13
I0
I0
I4
I13
I0
tp201
I-100
s(I4
I10
I9
I1
I3
I10
I8
tp202
I-100
s(I10
I8
I9
I1
I10
I8
I9
tp203
I-100
s(I4
I12
I8
I1
I4
I12
I6
tp204
I-100
s(I4
I23
I2
I0
I3
I24
I0
tp205
I-100
s(I5
I6
I0
I0
I5
I5
I0
tp206
I-100
s(I13
I17
I6
I1
I13
I17
I5
tp207
I-100
s(I4
I21
I0
I0
I3
I21
I0
tp208
I-100
s(I8
I25
I5
I1
I8
I25
I9
tp209
I-100
s(I16
I22
I0
I0
I16
I23
I0
tp210
I-100
s(I4
I22
I6
I1
I3
I22
I5
tp211
I-100
s(I4
I9
I6
I1
I3
I9
I5
tp212
I-100
s(I4
I12
I6
I1
I4
I12
I5
tp213
I-100
s(I4
I13
I9
I1
I4
I13
I8
tp214
I-100
s(I10
I25
I3
I1
I10
I26
I2
tp215
I-100
s(I16
I14
I6
I1
I16
I14
I5
tp216
I-100
s(I5
I18
I5
I1
I5
I19
I3
tp217
I-100
s(I16
I11
I9
I1
I16
I11
I8
tp218
I1000
s(I6
I25
I5
I1
I5
I26
I3
tp219
I-100
s(I7
I18
I6
I1
I6
I18
I5
tp220
I-100
s(I4
I22
I9
I1
I3
I22
I8
tp221
I-100
s(I4
I19
I5
I1
I4
I19
I3
tp222
I-100
s(I8
I20
I3
I1
I8
I21
I9
tp223
I-100
s(I6
I20
I5
I1
I5
I21
I9
tp224
I-100
s(I8
I25
I2
I0
I8
I26
I0
tp225
I-100
s(I4
I19
I0
I0
I3
I18
I0
tp226
I-100
s(I8
I20
I6
I1
I7
I21
I5
tp227
I-100
s(I6
I19
I5
I1
I5
I20
I9
tp228
I-100
s(I4
I22
I0
I0
I3
I22
I0
tp229
I-100
s(I6
I19
I5
I1
I6
I20
I3
tp230
I-100
s(I16
I12
I9
I1
I16
I12
I8
tp231
I1000
s(I6
I21
I5
I1
I6
I22
I3
tp232
I-100
s(I7
I24
I5
I1
I7
I25
I9
tp233
I-100
s(I2
I15
I2
I0
I16
I16
I0
tp234
I-100
s(I16
I13
I6
I1
I16
I13
I5
tp235
I1000
s(I4
I10
I3
I1
I3
I10
I9
tp236
I-100
s(I5
I5
I0
I0
I5
I4
I0
tp237
I-100
s(I7
I25
I5
I1
I7
I26
I3
tp238
I-100
s.