(dp0
(I61
I19
I9
tp1
I227
s(I10
I3
I3
tp2
I1
s(I50
I117
I0
tp3
I801
s(I3
I115
I0
tp4
I6
s(I18
I127
I6
tp5
I2
s(I51
I37
I0
tp6
I1
s(I51
I124
I6
tp7
I1
s(I38
I4
I2
tp8
I7
s(I38
I109
I0
tp9
I251
s(I30
I103
I8
tp10
I7
s(I42
I84
I0
tp11
I1
s(I26
I96
I3
tp12
I1
s(I29
I83
I6
tp13
I6
s(I30
I21
I5
tp14
I3
s(I60
I5
I3
tp15
I39
s(I28
I15
I8
tp16
I1
s(I43
I109
I2
tp17
I5
s(I20
I119
I0
tp18
I3126
s(I26
I121
I9
tp19
I12
s(I19
I87
I9
tp20
I2
s(I0
I126
I6
tp21
I1509
s(I47
I102
I3
tp22
I3
s(I21
I11
I0
tp23
I8
s(I8
I82
I3
tp24
I2
s(I42
I115
I3
tp25
I12
s(I45
I18
I0
tp26
I3
s(I51
I33
I5
tp27
I1
s(I25
I115
I2
tp28
I4
s(I12
I118
I0
tp29
I1
s(I46
I4
I0
tp30
I18
s(I64
I33
I2
tp31
I51
s(I51
I93
I6
tp32
I3
s(I60
I9
I6
tp33
I196
s(I63
I1
I3
tp34
I25
s(I6
I10
I3
tp35
I1
s(I8
I8
I6
tp36
I1
s(I61
I17
I6
tp37
I1
s(I70
I122
I8
tp38
I1
s(I34
I95
I8
tp39
I1
s(I9
I99
I0
tp40
I23
s(I37
I106
I8
tp41
I595
s(I29
I116
I0
tp42
I932
s(I34
I100
I0
tp43
I7
s(I26
I110
I8
tp44
I1891
s(I7
I17
I0
tp45
I1
s(I56
I124
I5
tp46
I5
s(I28
I123
I3
tp47
I1
s(I59
I109
I0
tp48
I52
s(I46
I124
I2
tp49
I3
s(I51
I99
I8
tp50
I3
s(I57
I22
I3
tp51
I1
s(I60
I40
I6
tp52
I3
s(I43
I86
I5
tp53
I28
s(I27
I8
I2
tp54
I2
s(I5
I120
I9
tp55
I425
s(I51
I122
I0
tp56
I1735
s(I41
I19
I0
tp57
I8
s(I42
I15
I0
tp58
I7
s(I26
I98
I5
tp59
I3
s(I41
I112
I9
tp60
I574
s(I16
I90
I3
tp61
I1
s(I44
I83
I9
tp62
I1
s(I6
I99
I6
tp63
I3
s(I37
I113
I9
tp64
I427
s(I59
I14
I5
tp65
I6
s(I33
I92
I0
tp66
I5
s(I50
I32
I5
tp67
I2
s(I37
I104
I3
tp68
I4
s(I21
I100
I0
tp69
I33
s(I36
I118
I6
tp70
I11
s(I14
I124
I3
tp71
I19
s(I48
I119
I2
tp72
I2
s(I35
I24
I0
tp73
I3
s(I43
I12
I3
tp74
I6
s(I61
I12
I8
tp75
I2
s(I15
I82
I0
tp76
I41
s(I52
I120
I8
tp77
I2
s(I51
I0
I6
tp78
I11
s(I47
I24
I2
tp79
I4
s(I9
I88
I9
tp80
I2
s(I43
I119
I5
tp81
I10
s(I61
I19
I0
tp82
I1
s(I61
I122
I6
tp83
I2
s(I38
I78
I0
tp84
I6
s(I0
I1
I9
tp85
I14
s(I27
I105
I6
tp86
I1
s(I64
I107
I5
tp87
I1
s(I17
I101
I8
tp88
I614
s(I62
I10
I6
tp89
I2
s(I38
I109
I9
tp90
I2
s(I44
I13
I6
tp91
I6
s(I38
I119
I8
tp92
I7
s(I38
I96
I6
tp93
I10
s(I30
I121
I0
tp94
I371
s(I5
I93
I8
tp95
I3
s(I16
I92
I8
tp96
I33
s(I20
I119
I9
tp97
I11
s(I61
I23
I5
tp98
I108
s(I20
I109
I8
tp99
I2
s(I57
I16
I5
tp100
I12
s(I35
I121
I2
tp101
I3
s(I0
I126
I9
tp102
I3
s(I63
I36
I3
tp103
I4
s(I12
I91
I0
tp104
I3
s(I17
I6
I2
tp105
I1
s(I39
I13
I3
tp106
I9
s(I23
I121
I2
tp107
I5
s(I38
I0
I6
tp108
I1
s(I44
I104
I5
tp109
I2
s(I18
I104
I2
tp110
I3
s(I32
I29
I0
tp111
I8
s(I32
I102
I6
tp112
I2
s(I6
I109
I8
tp113
I24
s(I64
I10
I5
tp114
I1
s(I39
I110
I0
tp115
I70
s(I7
I116
I6
tp116
I30
s(I41
I105
I5
tp117
I4
s(I50
I34
I3
tp118
I1
s(I11
I102
I0
tp119
I458
s(I10
I4
I0
tp120
I108
s(I38
I12
I3
tp121
I82
s(I38
I117
I3
tp122
I9
s(I25
I6
I0
tp123
I9
s(I43
I10
I5
tp124
I7
s(I27
I114
I9
tp125
I1858
s(I55
I9
I2
tp126
I67
s(I26
I24
I0
tp127
I7
s(I60
I13
I2
tp128
I1
s(I43
I117
I3
tp129
I3
s(I8
I106
I6
tp130
I57
s(I11
I123
I5
tp131
I7
s(I61
I124
I0
tp132
I458
s(I20
I111
I3
tp133
I5
s(I51
I25
I0
tp134
I404
s(I53
I118
I8
tp135
I3
s(I18
I11
I0
tp136
I1
s(I26
I102
I8
tp137
I36
s(I42
I32
I0
tp138
I6
s(I63
I89
I6
tp139
I54
s(I25
I107
I3
tp140
I1
s(I27
I110
I3
tp141
I5
s(I33
I6
I6
tp142
I2
s(I19
I110
I3
tp143
I2
s(I56
I120
I9
tp144
I1041
s(I33
I92
I9
tp145
I221
s(I12
I89
I2
tp146
I1
s(I12
I2
I0
tp147
I58
s(I18
I32
I0
tp148
I1
s(I64
I21
I2
tp149
I387
s(I29
I124
I3
tp150
I2
s(I29
I3
I3
tp151
I9
s(I38
I2
I8
tp152
I12
s(I37
I15
I0
tp153
I225
s(I2
I82
I8
tp154
I42
s(I63
I7
I8
tp155
I1
s(I28
I99
I2
tp156
I1
s(I6
I113
I9
tp157
I2
s(I62
I0
I0
tp158
I559
s(I46
I31
I3
tp159
I1
s(I52
I115
I0
tp160
I656
s(I57
I14
I2
tp161
I1
s(I57
I101
I0
tp162
I54
s(I0
I1
I2
tp163
I3
s(I48
I115
I6
tp164
I1
s(I54
I35
I0
tp165
I2
s(I7
I93
I0
tp166
I1
s(I44
I114
I0
tp167
I1
s(I41
I114
I2
tp168
I428
s(I15
I105
I5
tp169
I9
s(I45
I127
I2
tp170
I9
s(I29
I93
I5
tp171
I209
s(I32
I96
I5
tp172
I1
s(I16
I98
I0
tp173
I1
s(I47
I28
I6
tp174
I3
s(I62
I28
I5
tp175
I1
s(I8
I104
I8
tp176
I3
s(I55
I22
I8
tp177
I1
s(I41
I103
I0
tp178
I6
s(I37
I96
I2
tp179
I4
s(I33
I121
I8
tp180
I3
s(I8
I1
I0
tp181
I15
s(I43
I33
I0
tp182
I3
s(I14
I116
I0
tp183
I804
s(I14
I13
I2
tp184
I6
s(I23
I121
I9
tp185
I1
s(I60
I110
I9
tp186
I2
s(I43
I20
I2
tp187
I2
s(I15
I109
I2
tp188
I3
s(I33
I0
I0
tp189
I1971
s(I32
I79
I9
tp190
I13
s(I10
I124
I2
tp191
I16
s(I32
I3
I8
tp192
I2
s(I19
I127
I8
tp193
I2
s(I36
I107
I0
tp194
I265
s(I46
I122
I8
tp195
I2
s(I39
I116
I8
tp196
I3
s(I35
I117
I6
tp197
I12
s(I3
I1
I9
tp198
I60
s(I2
I20
I0
tp199
I1
s(I3
I98
I0
tp200
I94
s(I28
I6
I9
tp201
I2
s(I9
I108
I9
tp202
I15
s(I21
I125
I5
tp203
I7
s(I27
I29
I0
tp204
I1
s(I30
I113
I3
tp205
I2
s(I61
I95
I0
tp206
I22
s(I33
I93
I5
tp207
I334
s(I59
I8
I3
tp208
I34
s(I46
I25
I5
tp209
I2
s(I46
I118
I5
tp210
I7
s(I52
I10
I0
tp211
I583
s(I61
I124
I9
tp212
I2216
s(I30
I110
I9
tp213
I14
s(I23
I94
I5
tp214
I1659
s(I35
I113
I3
tp215
I6
s(I53
I96
I0
tp216
I54
s(I18
I21
I8
tp217
I1
s(I17
I103
I5
tp218
I5
s(I23
I97
I3
tp219
I2
s(I44
I25
I0
tp220
I6
s(I50
I102
I5
tp221
I6
s(I54
I1
I8
tp222
I1
s(I18
I112
I3
tp223
I2
s(I21
I26
I0
tp224
I1
s(I27
I126
I5
tp225
I1
s(I64
I120
I9
tp226
I1
s(I12
I103
I0
tp227
I1
s(I46
I21
I0
tp228
I419
s(I39
I118
I3
tp229
I11
s(I70
I2
I0
tp230
I6
s(I63
I107
I5
tp231
I1
s(I14
I15
I0
tp232
I6
s(I45
I30
I3
tp233
I3
s(I60
I5
I6
tp234
I9
s(I38
I20
I0
tp235
I30
s(I38
I125
I2
tp236
I2
s(I47
I117
I6
tp237
I7
s(I62
I125
I0
tp238
I547
s(I9
I6
I0
tp239
I6
s(I33
I2
I2
tp240
I1
s(I5
I83
I2
tp241
I35
s(I48
I16
I8
tp242
I5
s(I63
I29
I0
tp243
I146
s(I34
I117
I0
tp244
I1808
s(I52
I115
I9
tp245
I1002
s(I61
I100
I3
tp246
I55
s(I39
I122
I6
tp247
I3
s(I7
I0
I0
tp248
I19
s(I15
I12
I3
tp249
I1
s(I55
I117
I2
tp250
I17
s(I50
I100
I2
tp251
I1
s(I54
I8
I3
tp252
I1
s(I41
I2
I0
tp253
I194
s(I16
I104
I8
tp254
I4
s(I6
I125
I5
tp255
I18
s(I8
I126
I0
tp256
I103
s(I36
I126
I3
tp257
I1
s(I57
I10
I6
tp258
I2
s(I41
I121
I8
tp259
I6
s(I9
I115
I2
tp260
I1
s(I43
I90
I0
tp261
I214
s(I2
I117
I3
tp262
I1021
s(I33
I99
I0
tp263
I3
s(I14
I110
I8
tp264
I1
s(I29
I100
I2
tp265
I1
s(I25
I101
I8
tp266
I124
s(I34
I15
I0
tp267
I6
s(I18
I114
I5
tp268
I20
s(I63
I118
I5
tp269
I2
s(I25
I124
I0
tp270
I3868
s(I47
I14
I9
tp271
I9
s(I39
I4
I6
tp272
I8
s(I46
I23
I2
tp273
I6
s(I52
I107
I3
tp274
I8
s(I48
I9
I2
tp275
I2
s(I51
I19
I6
tp276
I2
s(I63
I105
I3
tp277
I2
s(I3
I1
I0
tp278
I196
s(I6
I92
I3
tp279
I46
s(I32
I125
I3
tp280
I1
s(I61
I34
I0
tp281
I5
s(I8
I115
I9
tp282
I12
s(I29
I15
I9
tp283
I1
s(I25
I97
I5
tp284
I3
s(I3
I98
I9
tp285
I138
s(I28
I6
I0
tp286
I236
s(I3
I120
I8
tp287
I850
s(I43
I16
I6
tp288
I3
s(I15
I97
I6
tp289
I17
s(I27
I3
I8
tp290
I3
s(I17
I84
I8
tp291
I1
s(I45
I7
I3
tp292
I6
s(I42
I109
I5
tp293
I2
s(I53
I3
I0
tp294
I1667
s(I30
I110
I0
tp295
I294
s(I54
I23
I0
tp296
I1
s(I56
I11
I5
tp297
I10
s(I55
I123
I0
tp298
I251
s(I16
I30
I0
tp299
I1
s(I47
I111
I9
tp300
I990
s(I21
I113
I9
tp301
I20
s(I64
I120
I0
tp302
I168
s(I10
I116
I3
tp303
I7
s(I44
I2
I3
tp304
I7
s(I9
I86
I8
tp305
I12
s(I53
I7
I5
tp306
I1
s(I46
I21
I9
tp307
I1
s(I52
I117
I6
tp308
I1
s(I27
I89
I2
tp309
I240
s(I30
I106
I5
tp310
I3
s(I26
I117
I5
tp311
I3
s(I10
I109
I9
tp312
I6
s(I41
I123
I6
tp313
I5
s(I59
I102
I5
tp314
I2
s(I48
I125
I8
tp315
I10
s(I39
I25
I0
tp316
I9
s(I57
I35
I0
tp317
I18
s(I3
I122
I3
tp318
I4
s(I36
I101
I8
tp319
I558
s(I39
I0
I8
tp320
I1
s(I32
I1
I3
tp321
I9
s(I32
I106
I3
tp322
I2
s(I60
I99
I9
tp323
I1
s(I25
I126
I2
tp324
I2
s(I37
I89
I5
tp325
I5
s(I48
I12
I8
tp326
I2
s(I55
I24
I6
tp327
I1
s(I26
I105
I0
tp328
I743
s(I32
I115
I9
tp329
I12
s(I16
I85
I6
tp330
I10
s(I62
I90
I5
tp331
I54
s(I17
I111
I6
tp332
I15
s(I17
I22
I0
tp333
I1
s(I35
I106
I5
tp334
I29
s(I18
I120
I0
tp335
I62
s(I8
I91
I0
tp336
I45
s(I64
I122
I9
tp337
I1
s(I42
I120
I2
tp338
I10
s(I10
I114
I8
tp339
I6
s(I19
I121
I2
tp340
I7
s(I36
I16
I2
tp341
I1
s(I53
I92
I0
tp342
I256
s(I12
I111
I3
tp343
I15
s(I43
I121
I0
tp344
I26
s(I38
I116
I0
tp345
I2
s(I33
I21
I6
tp346
I2
s(I39
I126
I2
tp347
I6
s(I43
I90
I9
tp348
I1855
s(I43
I96
I8
tp349
I2
s(I5
I116
I5
tp350
I24
s(I33
I85
I8
tp351
I1
s(I17
I107
I3
tp352
I1
s(I35
I102
I0
tp353
I26
s(I57
I13
I8
tp354
I371
s(I5
I107
I3
tp355
I3
s(I64
I102
I2
tp356
I14
s(I32
I108
I8
tp357
I215
s(I44
I0
I5
tp358
I6
s(I34
I125
I3
tp359
I6
s(I61
I5
I0
tp360
I4
s(I60
I6
I8
tp361
I6
s(I25
I111
I2
tp362
I2
s(I55
I125
I3
tp363
I1
s(I11
I114
I9
tp364
I6
s(I29
I15
I0
tp365
I182
s(I57
I116
I0
tp366
I1
s(I50
I108
I3
tp367
I3
s(I2
I94
I5
tp368
I3
s(I30
I11
I0
tp369
I1
s(I29
I79
I6
tp370
I6
s(I44
I99
I0
tp371
I55
s(I47
I2
I5
tp372
I4
s(I46
I19
I6
tp373
I2
s(I55
I30
I0
tp374
I5
s(I16
I83
I0
tp375
I41
s(I43
I98
I3
tp376
I4
s(I64
I5
I0
tp377
I1
s(I23
I4
I0
tp378
I51
s(I47
I111
I0
tp379
I213
s(I62
I123
I6
tp380
I1
s(I33
I8
I8
tp381
I4
s(I36
I6
I9
tp382
I1
s(I42
I19
I2
tp383
I10
s(I19
I119
I0
tp384
I2080
s(I56
I100
I0
tp385
I54
s(I33
I23
I0
tp386
I23
s(I38
I94
I9
tp387
I335
s(I56
I7
I9
tp388
I1390
s(I6
I100
I0
tp389
I25
s(I56
I125
I8
tp390
I5
s(I59
I5
I9
tp391
I452
s(I2
I97
I9
tp392
I13
s(I54
I121
I3
tp393
I28
s(I50
I106
I8
tp394
I2
s(I47
I99
I5
tp395
I8
s(I21
I111
I6
tp396
I5
s(I36
I115
I0
tp397
I2229
s(I54
I105
I9
tp398
I1
s(I44
I108
I8
tp399
I2
s(I50
I19
I0
tp400
I26
s(I6
I123
I3
tp401
I31
s(I33
I19
I5
tp402
I1
s(I35
I32
I3
tp403
I1
s(I41
I119
I2
tp404
I10
s(I28
I114
I0
tp405
I178
s(I24
I111
I9
tp406
I5
s(I61
I117
I8
tp407
I233
s(I45
I83
I3
tp408
I1
s(I27
I23
I2
tp409
I1
s(I43
I36
I0
tp410
I6
s(I63
I103
I8
tp411
I4
s(I45
I9
I8
tp412
I7
s(I45
I19
I9
tp413
I2
s(I38
I106
I5
tp414
I5
s(I42
I117
I5
tp415
I7
s(I38
I102
I5
tp416
I4
s(I44
I10
I0
tp417
I2052
s(I15
I126
I5
tp418
I6
s(I52
I6
I5
tp419
I1
s(I55
I28
I2
tp420
I1
s(I45
I112
I0
tp421
I582
s(I32
I127
I5
tp422
I12
s(I56
I127
I3
tp423
I6
s(I59
I7
I6
tp424
I143
s(I36
I82
I6
tp425
I50
s(I23
I109
I0
tp426
I30
s(I10
I0
I3
tp427
I2
s(I27
I98
I0
tp428
I343
s(I42
I124
I6
tp429
I7
s(I32
I9
I2
tp430
I6
s(I32
I82
I0
tp431
I26
s(I29
I117
I9
tp432
I5
s(I38
I5
I0
tp433
I1600
s(I19
I117
I6
tp434
I12
s(I28
I17
I6
tp435
I1
s(I15
I114
I0
tp436
I3125
s(I39
I37
I0
tp437
I2
s(I51
I9
I9
tp438
I4
s(I26
I97
I3
tp439
I2
s(I63
I12
I0
tp440
I378
s(I6
I15
I0
tp441
I66
s(I37
I119
I2
tp442
I7
s(I14
I3
I3
tp443
I1
s(I54
I93
I0
tp444
I259
s(I57
I110
I8
tp445
I10
s(I41
I108
I5
tp446
I2
s(I42
I112
I3
tp447
I419
s(I19
I113
I3
tp448
I1
s(I12
I119
I2
tp449
I1865
s(I48
I10
I9
tp450
I1
s(I42
I105
I9
tp451
I979
s(I56
I1
I6
tp452
I5
s(I8
I111
I0
tp453
I1085
s(I61
I119
I6
tp454
I3
s(I35
I126
I3
tp455
I7
s(I19
I82
I0
tp456
I46
s(I34
I92
I6
tp457
I334
s(I29
I115
I2
tp458
I25
s(I41
I22
I3
tp459
I2
s(I17
I127
I2
tp460
I7
s(I34
I28
I0
tp461
I11
s(I62
I16
I9
tp462
I3
s(I46
I94
I9
tp463
I1871
s(I11
I83
I0
tp464
I62
s(I64
I119
I9
tp465
I7
s(I26
I111
I6
tp466
I2
s(I54
I124
I6
tp467
I7
s(I59
I5
I0
tp468
I233
s(I46
I125
I0
tp469
I580
s(I50
I116
I0
tp470
I19
s(I25
I114
I6
tp471
I711
s(I36
I115
I9
tp472
I5
s(I17
I92
I0
tp473
I17
s(I51
I125
I2
tp474
I33
s(I38
I7
I2
tp475
I3
s(I44
I107
I3
tp476
I5
s(I3
I107
I8
tp477
I4
s(I34
I0
I5
tp478
I4
s(I62
I108
I2
tp479
I8
s(I8
I78
I6
tp480
I35
s(I63
I101
I0
tp481
I13
s(I53
I18
I0
tp482
I6
s(I33
I83
I2
tp483
I212
s(I17
I113
I5
tp484
I4
s(I20
I118
I0
tp485
I687
s(I0
I125
I6
tp486
I1875
s(I53
I105
I8
tp487
I1
s(I21
I12
I0
tp488
I39
s(I33
I126
I2
tp489
I1
s(I42
I114
I5
tp490
I3
s(I64
I22
I9
tp491
I54
s(I45
I19
I0
tp492
I429
s(I16
I126
I2
tp493
I8
s(I47
I0
I8
tp494
I12
s(I46
I7
I0
tp495
I2
s(I48
I11
I5
tp496
I3
s(I37
I116
I0
tp497
I570
s(I43
I118
I9
tp498
I432
s(I14
I96
I2
tp499
I2
s(I61
I18
I6
tp500
I5
s(I29
I110
I8
tp501
I4
s(I7
I117
I3
tp502
I10
s(I0
I2
I9
tp503
I201
s(I9
I124
I0
tp504
I4562
s(I15
I17
I0
tp505
I5
s(I64
I108
I5
tp506
I43
s(I48
I116
I9
tp507
I1552
s(I29
I117
I0
tp508
I1870
s(I38
I98
I9
tp509
I542
s(I25
I104
I9
tp510
I2
s(I25
I111
I6
tp511
I1210
s(I15
I114
I9
tp512
I7
s(I24
I14
I0
tp513
I38
s(I48
I23
I0
tp514
I412
s(I54
I7
I6
tp515
I2
s(I63
I26
I8
tp516
I45
s(I50
I0
I9
tp517
I1377
s(I59
I3
I2
tp518
I1
s(I59
I106
I0
tp519
I197
s(I52
I122
I3
tp520
I1
s(I36
I86
I2
tp521
I2
s(I20
I112
I9
tp522
I4
s(I7
I116
I3
tp523
I1
s(I26
I6
I6
tp524
I2
s(I29
I121
I5
tp525
I1
s(I29
I0
I9
tp526
I2
s(I3
I105
I6
tp527
I336
s(I18
I105
I0
tp528
I10
s(I45
I120
I3
tp529
I5
s(I54
I122
I5
tp530
I69
s(I56
I119
I2
tp531
I53
s(I57
I19
I2
tp532
I7
s(I60
I19
I5
tp533
I5
s(I0
I123
I0
tp534
I581
s(I16
I122
I3
tp535
I18
s(I21
I101
I0
tp536
I541
s(I36
I117
I6
tp537
I1
s(I48
I118
I6
tp538
I4
s(I51
I119
I5
tp539
I3
s(I35
I25
I0
tp540
I18
s(I25
I5
I6
tp541
I2
s(I15
I117
I9
tp542
I2
s(I43
I13
I5
tp543
I1
s(I46
I94
I0
tp544
I218
s(I61
I13
I8
tp545
I6
s(I35
I89
I6
tp546
I264
s(I50
I89
I0
tp547
I253
s(I53
I8
I5
tp548
I1
s(I27
I86
I0
tp549
I216
s(I17
I127
I0
tp550
I9
s(I10
I120
I6
tp551
I8
s(I60
I23
I8
tp552
I1
s(I50
I126
I8
tp553
I8
s(I5
I103
I0
tp554
I253
s(I26
I93
I3
tp555
I2
s(I33
I100
I9
tp556
I264
s(I38
I118
I8
tp557
I2
s(I37
I10
I3
tp558
I12
s(I46
I90
I5
tp559
I3
s(I9
I35
I0
tp560
I1
s(I54
I120
I2
tp561
I5
s(I52
I120
I5
tp562
I4
s(I54
I7
I2
tp563
I6
s(I26
I120
I2
tp564
I7
s(I64
I22
I0
tp565
I148
s(I55
I112
I8
tp566
I2
s(I29
I123
I3
tp567
I1
s(I38
I3
I6
tp568
I4
s(I47
I126
I0
tp569
I586
s(I62
I104
I6
tp570
I4
s(I15
I116
I6
tp571
I4
s(I42
I0
I2
tp572
I5
s(I9
I95
I0
tp573
I1
s(I37
I78
I8
tp574
I212
s(I46
I28
I3
tp575
I2
s(I46
I117
I3
tp576
I2
s(I33
I38
I0
tp577
I2
s(I39
I111
I0
tp578
I1643
s(I0
I2
I0
tp579
I23
s(I6
I85
I0
tp580
I45
s(I62
I36
I9
tp581
I32
s(I11
I103
I0
tp582
I22
s(I48
I116
I0
tp583
I808
s(I51
I117
I3
tp584
I1
s(I23
I98
I9
tp585
I4
s(I19
I107
I5
tp586
I1
s(I25
I7
I0
tp587
I106
s(I46
I88
I2
tp588
I1
s(I50
I0
I0
tp589
I2309
s(I6
I104
I5
tp590
I1
s(I59
I106
I9
tp591
I1930
s(I28
I96
I9
tp592
I3
s(I52
I19
I8
tp593
I4
s(I55
I107
I9
tp594
I544
s(I39
I115
I5
tp595
I9
s(I12
I84
I9
tp596
I1
s(I55
I114
I3
tp597
I213
s(I42
I35
I0
tp598
I4
s(I60
I111
I5
tp599
I2
s(I19
I12
I0
tp600
I1
s(I25
I100
I5
tp601
I1
s(I37
I85
I9
tp602
I1831
s(I18
I105
I9
tp603
I1816
s(I18
I115
I8
tp604
I5
s(I27
I16
I3
tp605
I1
s(I21
I27
I9
tp606
I1
s(I10
I125
I0
tp607
I4600
s(I0
I123
I9
tp608
I138
s(I35
I0
I3
tp609
I2
s(I9
I116
I3
tp610
I8
s(I12
I1
I0
tp611
I3
s(I60
I22
I9
tp612
I1
s(I23
I124
I0
tp613
I1
s(I37
I0
I0
tp614
I2401
s(I24
I95
I5
tp615
I2
s(I29
I90
I8
tp616
I2
s(I32
I99
I0
tp617
I41
s(I50
I89
I9
tp618
I3
s(I28
I98
I6
tp619
I2
s(I62
I3
I0
tp620
I3
s(I12
I124
I8
tp621
I1
s(I52
I114
I0
tp622
I17
s(I57
I15
I6
tp623
I8
s(I7
I1
I9
tp624
I1
s(I53
I111
I2
tp625
I5
s(I37
I109
I5
tp626
I5
s(I30
I21
I0
tp627
I27
s(I20
I1
I6
tp628
I1
s(I7
I98
I0
tp629
I496
s(I25
I1
I2
tp630
I1
s(I62
I102
I5
tp631
I52
s(I18
I113
I3
tp632
I2
s(I36
I98
I2
tp633
I2
s(I63
I24
I3
tp634
I3
s(I41
I3
I9
tp635
I4
s(I50
I2
I6
tp636
I6
s(I8
I103
I8
tp637
I1
s(I45
I93
I9
tp638
I1866
s(I57
I11
I3
tp639
I196
s(I59
I115
I5
tp640
I53
s(I24
I126
I5
tp641
I3
s(I14
I119
I0
tp642
I1
s(I19
I101
I0
tp643
I202
s(I1
I1
I6
tp644
I34
s(I48
I17
I6
tp645
I6
s(I19
I124
I8
tp646
I7
s(I27
I94
I3
tp647
I5
s(I26
I124
I6
tp648
I8
s(I56
I14
I3
tp649
I1
s(I59
I20
I0
tp650
I10
s(I44
I113
I8
tp651
I3
s(I19
I6
I5
tp652
I1
s(I50
I101
I0
tp653
I59
s(I3
I99
I0
tp654
I10
s(I37
I2
I2
tp655
I5
s(I28
I96
I0
tp656
I1468
s(I2
I109
I5
tp657
I12
s(I62
I7
I0
tp658
I2
s(I52
I9
I0
tp659
I6
s(I57
I12
I0
tp660
I200
s(I20
I100
I9
tp661
I1
s(I60
I21
I3
tp662
I44
s(I43
I93
I2
tp663
I2
s(I30
I23
I2
tp664
I1
s(I10
I94
I0
tp665
I6
s(I19
I103
I9
tp666
I2
s(I47
I118
I3
tp667
I5
s(I3
I127
I5
tp668
I4
s(I21
I27
I0
tp669
I6
s(I28
I127
I0
tp670
I104
s(I45
I2
I0
tp671
I5
s(I63
I30
I5
tp672
I2
s(I19
I126
I3
tp673
I7
s(I28
I100
I5
tp674
I6
s(I24
I99
I5
tp675
I74
s(I46
I20
I0
tp676
I10
s(I46
I109
I2
tp677
I1
s(I8
I123
I9
tp678
I18
s(I41
I98
I2
tp679
I28
s(I8
I102
I6
tp680
I22
s(I29
I125
I8
tp681
I1
s(I38
I124
I6
tp682
I7
s(I37
I0
I9
tp683
I6
s(I62
I124
I0
tp684
I3
s(I32
I0
I6
tp685
I9
s(I44
I86
I6
tp686
I28
s(I63
I117
I2
tp687
I1
s(I6
I112
I2
tp688
I1
s(I53
I2
I6
tp689
I2
s(I34
I116
I0
tp690
I67
s(I15
I123
I8
tp691
I3
s(I26
I126
I8
tp692
I140
s(I7
I1
I0
tp693
I144
s(I59
I125
I0
tp694
I76
s(I52
I17
I2
tp695
I6
s(I55
I122
I2
tp696
I1498
s(I14
I109
I5
tp697
I18
s(I17
I23
I9
tp698
I1
s(I51
I115
I8
tp699
I5
s(I57
I38
I3
tp700
I7
s(I16
I14
I0
tp701
I1
s(I24
I2
I5
tp702
I2
s(I5
I104
I9
tp703
I2
s(I38
I125
I9
tp704
I1
s(I10
I117
I3
tp705
I3
s(I41
I3
I0
tp706
I2201
s(I44
I90
I3
tp707
I2
s(I34
I110
I8
tp708
I25
s(I8
I125
I0
tp709
I1
s(I26
I114
I5
tp710
I8
s(I41
I96
I9
tp711
I345
s(I10
I106
I9
tp712
I55
s(I3
I2
I5
tp713
I1
s(I37
I97
I9
tp714
I490
s(I33
I108
I0
tp715
I379
s(I20
I5
I2
tp716
I8
s(I44
I116
I5
tp717
I10
s(I3
I125
I3
tp718
I10
s(I34
I14
I0
tp719
I1
s(I21
I116
I0
tp720
I387
s(I36
I102
I6
tp721
I217
s(I35
I8
I0
tp722
I3
s(I52
I3
I5
tp723
I1
s(I51
I16
I6
tp724
I1
s(I2
I1
I8
tp725
I60
s(I5
I9
I9
tp726
I2
s(I17
I21
I6
tp727
I1
s(I38
I126
I0
tp728
I624
s(I28
I5
I0
tp729
I6
s(I27
I121
I6
tp730
I12
s(I27
I0
I8
tp731
I3
s(I64
I123
I5
tp732
I3
s(I42
I121
I0
tp733
I2229
s(I17
I85
I8
tp734
I361
s(I38
I103
I8
tp735
I1
s(I30
I105
I0
tp736
I272
s(I20
I100
I0
tp737
I485
s(I59
I110
I0
tp738
I6
s(I20
I125
I8
tp739
I7
s(I35
I105
I2
tp740
I2
s(I38
I122
I5
tp741
I6
s(I37
I6
I6
tp742
I6
s(I55
I115
I5
tp743
I3
s(I64
I103
I0
tp744
I40
s(I47
I9
I0
tp745
I588
s(I18
I88
I2
tp746
I2
s(I46
I14
I8
tp747
I9
s(I57
I5
I8
tp748
I1
s(I32
I118
I6
tp749
I1646
s(I56
I6
I0
tp750
I240
s(I37
I125
I8
tp751
I1
s(I33
I110
I2
tp752
I27
s(I5
I119
I2
tp753
I2024
s(I64
I26
I5
tp754
I1
s(I39
I30
I0
tp755
I8
s(I45
I80
I9
tp756
I2
s(I34
I89
I0
tp757
I29
s(I24
I85
I6
tp758
I166
s(I1
I127
I0
tp759
I7
s(I63
I18
I9
tp760
I2177
s(I38
I101
I3
tp761
I55
s(I25
I22
I0
tp762
I11
s(I34
I126
I8
tp763
I12
s(I8
I119
I5
tp764
I6
s(I20
I102
I9
tp765
I5
s(I59
I99
I8
tp766
I1
s(I17
I23
I0
tp767
I5
s(I20
I127
I3
tp768
I7
s(I51
I105
I0
tp769
I2
s(I38
I120
I2
tp770
I10
s(I36
I7
I5
tp771
I6
s(I36
I120
I5
tp772
I7
s(I42
I16
I0
tp773
I442
s(I32
I12
I2
tp774
I1
s(I59
I13
I0
tp775
I198
s(I25
I123
I3
tp776
I12
s(I53
I6
I2
tp777
I5
s(I32
I102
I3
tp778
I14
s(I20
I90
I2
tp779
I166
s(I42
I9
I8
tp780
I82
s(I45
I113
I9
tp781
I1533
s(I10
I106
I0
tp782
I6
s(I15
I1
I9
tp783
I1
s(I33
I108
I9
tp784
I227
s(I11
I12
I0
tp785
I1
s(I17
I116
I5
tp786
I6
s(I12
I106
I2
tp787
I60
s(I19
I0
I3
tp788
I1
s(I21
I116
I9
tp789
I2
s(I2
I93
I0
tp790
I2
s(I21
I110
I8
tp791
I4
s(I54
I110
I9
tp792
I660
s(I6
I120
I3
tp793
I446
s(I33
I18
I9
tp794
I1
s(I61
I6
I0
tp795
I21
s(I28
I115
I2
tp796
I1
s(I6
I97
I9
tp797
I3
s(I37
I127
I6
tp798
I2
s(I17
I112
I8
tp799
I12
s(I14
I2
I6
tp800
I2
s(I10
I84
I6
tp801
I1
s(I57
I117
I0
tp802
I59
s(I44
I121
I8
tp803
I3
s(I53
I39
I0
tp804
I1
s(I24
I83
I0
tp805
I46
s(I48
I99
I6
tp806
I7
s(I53
I4
I9
tp807
I1383
s(I62
I23
I3
tp808
I3
s(I54
I0
I2
tp809
I5
s(I45
I111
I2
tp810
I2
s(I6
I0
I5
tp811
I2
s(I28
I119
I9
tp812
I9
s(I21
I85
I9
tp813
I1
s(I23
I5
I0
tp814
I82
s(I35
I105
I9
tp815
I1
s(I12
I81
I8
tp816
I1
s(I27
I101
I2
tp817
I377
s(I32
I10
I0
tp818
I24
s(I63
I20
I6
tp819
I1
s(I9
I117
I5
tp820
I19
s(I6
I126
I8
tp821
I4
s(I56
I99
I0
tp822
I1
s(I54
I120
I6
tp823
I33
s(I43
I4
I2
tp824
I12
s(I15
I125
I2
tp825
I16
s(I48
I89
I8
tp826
I3
s(I48
I2
I6
tp827
I1
s(I46
I120
I6
tp828
I7
s(I11
I117
I0
tp829
I2518
s(I64
I0
I5
tp830
I47
s(I39
I100
I8
tp831
I2
s(I35
I101
I6
tp832
I558
s(I64
I116
I5
tp833
I45
s(I36
I25
I2
tp834
I1
s(I60
I98
I2
tp835
I56
s(I28
I104
I8
tp836
I1
s(I3
I82
I0
tp837
I6
s(I43
I11
I6
tp838
I2
s(I30
I97
I3
tp839
I1
s(I61
I111
I0
tp840
I16
s(I51
I4
I0
tp841
I23
s(I32
I114
I2
tp842
I1447
s(I33
I106
I6
tp843
I171
s(I52
I26
I0
tp844
I35
s(I30
I94
I9
tp845
I13
s(I61
I118
I8
tp846
I33
s(I23
I110
I5
tp847
I383
s(I7
I118
I9
tp848
I489
s(I53
I112
I0
tp849
I64
s(I43
I37
I0
tp850
I2
s(I18
I5
I8
tp851
I1
s(I30
I4
I2
tp852
I4
s(I6
I16
I0
tp853
I1
s(I23
I113
I3
tp854
I1843
s(I44
I9
I0
tp855
I8
s(I34
I110
I5
tp856
I1447
s(I39
I127
I9
tp857
I2
s(I59
I4
I6
tp858
I67
s(I64
I2
I2
tp859
I347
s(I39
I102
I3
tp860
I1
s(I23
I11
I2
tp861
I2
s(I23
I82
I0
tp862
I46
s(I57
I115
I3
tp863
I8
s(I37
I18
I0
tp864
I2
s(I2
I93
I9
tp865
I64
s(I45
I14
I3
tp866
I2
s(I16
I115
I5
tp867
I8
s(I38
I4
I0
tp868
I381
s(I38
I109
I2
tp869
I4
s(I62
I109
I0
tp870
I271
s(I37
I9
I8
tp871
I2
s(I55
I1
I3
tp872
I555
s(I48
I0
I8
tp873
I13
s(I63
I13
I0
tp874
I163
s(I27
I117
I2
tp875
I1298
s(I52
I121
I8
tp876
I7
s(I61
I116
I3
tp877
I63
s(I39
I106
I6
tp878
I2
s(I56
I29
I3
tp879
I1
s(I24
I83
I9
tp880
I2
s(I27
I111
I5
tp881
I4
s(I45
I18
I6
tp882
I1
s(I16
I127
I0
tp883
I212
s(I51
I93
I0
tp884
I1
s(I6
I109
I5
tp885
I4
s(I37
I115
I2
tp886
I1
s(I2
I124
I9
tp887
I41
s(I8
I110
I0
tp888
I17
s(I14
I97
I0
tp889
I39
s(I20
I107
I9
tp890
I2
s(I41
I105
I8
tp891
I5
s(I33
I115
I0
tp892
I67
s(I14
I126
I8
tp893
I2
s(I41
I23
I5
tp894
I1
s(I25
I117
I8
tp895
I14
s(I34
I31
I0
tp896
I5
s(I18
I98
I5
tp897
I3
s(I46
I103
I8
tp898
I2
s(I42
I11
I3
tp899
I8
s(I45
I115
I6
tp900
I10
s(I52
I123
I3
tp901
I32
s(I36
I87
I0
tp902
I26
s(I27
I8
I0
tp903
I9
s(I51
I35
I0
tp904
I2
s(I38
I6
I6
tp905
I1
s(I25
I113
I5
tp906
I6
s(I3
I82
I9
tp907
I84
s(I28
I22
I0
tp908
I16
s(I3
I104
I8
tp909
I4
s(I43
I0
I6
tp910
I2
s(I15
I113
I6
tp911
I25
s(I52
I102
I2
tp912
I2
s(I45
I119
I3
tp913
I2
s(I54
I0
I9
tp914
I1
s(I63
I122
I0
tp915
I524
s(I53
I19
I0
tp916
I1054
s(I46
I116
I3
tp917
I2
s(I24
I110
I2
tp918
I1
s(I30
I94
I0
tp919
I49
s(I53
I106
I8
tp920
I2
s(I21
I100
I2
tp921
I2
s(I55
I32
I2
tp922
I3
s(I60
I102
I6
tp923
I2
s(I16
I125
I2
tp924
I1
s(I44
I23
I8
tp925
I1
s(I47
I127
I9
tp926
I1359
s(I12
I116
I0
tp927
I3580
s(I15
I117
I3
tp928
I13
s(I53
I23
I5
tp929
I1
s(I37
I117
I0
tp930
I1661
s(I17
I126
I6
tp931
I3
s(I25
I107
I0
tp932
I15
s(I7
I122
I5
tp933
I331
s(I41
I107
I6
tp934
I3
s(I3
I115
I9
tp935
I72
s(I39
I14
I9
tp936
I4
s(I9
I6
I2
tp937
I1
s(I59
I118
I5
tp938
I221
s(I48
I19
I5
tp939
I6
s(I48
I109
I8
tp940
I2
s(I39
I9
I0
tp941
I40
s(I60
I106
I3
tp942
I4
s(I3
I106
I3
tp943
I8
s(I24
I13
I0
tp944
I3
s(I30
I121
I2
tp945
I8
s(I14
I95
I3
tp946
I26
s(I48
I22
I0
tp947
I10
s(I32
I17
I3
tp948
I1
s(I54
I121
I0
tp949
I2043
s(I60
I115
I9
tp950
I674
s(I62
I115
I8
tp951
I197
s(I59
I0
I2
tp952
I1
s(I50
I29
I8
tp953
I1
s(I26
I121
I0
tp954
I5379
s(I12
I91
I2
tp955
I352
s(I17
I6
I0
tp956
I13
s(I25
I10
I3
tp957
I1
s(I43
I14
I8
tp958
I3
s(I42
I104
I2
tp959
I1
s(I35
I90
I3
tp960
I7
s(I56
I118
I6
tp961
I28
s(I43
I105
I0
tp962
I6
s(I39
I110
I2
tp963
I1
s(I0
I122
I0
tp964
I612
s(I18
I7
I3
tp965
I1
s(I5
I100
I5
tp966
I3
s(I33
I101
I8
tp967
I2
s(I45
I22
I2
tp968
I6
s(I60
I100
I8
tp969
I2
s(I25
I111
I0
tp970
I17
s(I12
I122
I2
tp971
I974
s(I46
I0
I2
tp972
I7
s(I46
I89
I0
tp973
I1
s(I64
I118
I2
tp974
I354
s(I32
I124
I8
tp975
I14
s(I60
I13
I0
tp976
I19
s(I60
I114
I2
tp977
I51
s(I17
I120
I0
tp978
I4393
s(I61
I21
I0
tp979
I4
s(I11
I115
I8
tp980
I2
s(I35
I123
I5
tp981
I8
s(I57
I8
I9
tp982
I1411
s(I56
I21
I2
tp983
I1
s(I21
I3
I3
tp984
I8
s(I5
I120
I0
tp985
I8
s(I44
I112
I9
tp986
I1530
s(I19
I127
I5
tp987
I7
s(I27
I106
I9
tp988
I18
s(I54
I0
I0
tp989
I844
s(I44
I83
I0
tp990
I219
s(I47
I18
I5
tp991
I6
s(I2
I100
I6
tp992
I2
s(I64
I12
I8
tp993
I2
s(I55
I110
I0
tp994
I2
s(I57
I105
I5
tp995
I208
s(I50
I3
I2
tp996
I8
s(I47
I100
I8
tp997
I2
s(I9
I123
I3
tp998
I4
s(I23
I20
I0
tp999
I11
s(I47
I127
I0
tp1000
I1687
s(I62
I107
I6
tp1001
I1
s(I27
I116
I6
tp1002
I1
s(I8
I34
I0
tp1003
I1
s(I42
I3
I2
tp1004
I7
s(I56
I116
I0
tp1005
I57
s(I9
I88
I0
tp1006
I47
s(I24
I106
I6
tp1007
I190
s(I57
I14
I0
tp1008
I1
s(I38
I78
I9
tp1009
I212
s(I0
I1
I0
tp1010
I29
s(I61
I126
I2
tp1011
I1
s(I2
I113
I9
tp1012
I24
s(I14
I120
I5
tp1013
I1
s(I48
I115
I0
tp1014
I20
s(I16
I121
I6
tp1015
I9
s(I44
I114
I6
tp1016
I215
s(I25
I0
I0
tp1017
I2194
s(I47
I115
I5
tp1018
I4
s(I21
I127
I6
tp1019
I9
s(I36
I99
I0
tp1020
I4
s(I54
I121
I9
tp1021
I3
s(I63
I114
I3
tp1022
I27
s(I50
I3
I0
tp1023
I43
s(I56
I112
I5
tp1024
I213
s(I24
I102
I3
tp1025
I4
s(I61
I126
I0
tp1026
I4
s(I41
I103
I2
tp1027
I2
s(I62
I35
I2
tp1028
I1
s(I14
I119
I6
tp1029
I16
s(I24
I127
I9
tp1030
I8
s(I5
I122
I2
tp1031
I480
s(I28
I0
I8
tp1032
I2
s(I19
I13
I0
tp1033
I29
s(I43
I20
I0
tp1034
I26
s(I18
I114
I8
tp1035
I8
s(I45
I121
I8
tp1036
I2
s(I45
I3
I9
tp1037
I2
s(I10
I124
I0
tp1038
I19
s(I6
I119
I6
tp1039
I5
s(I2
I102
I8
tp1040
I251
s(I45
I96
I0
tp1041
I58
s(I35
I117
I0
tp1042
I16
s(I12
I0
I0
tp1043
I210
s(I23
I125
I0
tp1044
I38
s(I56
I10
I9
tp1045
I1
s(I35
I108
I8
tp1046
I40
s(I44
I21
I3
tp1047
I2
s(I27
I114
I0
tp1048
I900
s(I42
I108
I6
tp1049
I4
s(I45
I125
I5
tp1050
I6
s(I32
I98
I0
tp1051
I55
s(I35
I113
I6
tp1052
I183
s(I24
I104
I8
tp1053
I2
s(I2
I106
I5
tp1054
I3
s(I17
I120
I9
tp1055
I12
s(I51
I25
I9
tp1056
I2
s(I26
I113
I3
tp1057
I2
s(I30
I20
I0
tp1058
I3
s(I64
I31
I5
tp1059
I1
s(I53
I96
I5
tp1060
I1
s(I57
I126
I8
tp1061
I10
s(I41
I92
I5
tp1062
I2
s(I25
I2
I2
tp1063
I8
s(I12
I126
I6
tp1064
I2
s(I55
I13
I0
tp1065
I10
s(I42
I96
I3
tp1066
I32
s(I45
I1
I6
tp1067
I1
s(I54
I10
I8
tp1068
I1
s(I63
I25
I5
tp1069
I3
s(I12
I103
I2
tp1070
I418
s(I42
I89
I9
tp1071
I1850
s(I35
I119
I9
tp1072
I1668
s(I57
I4
I5
tp1073
I67
s(I47
I82
I0
tp1074
I32
s(I23
I2
I8
tp1075
I1
s(I35
I110
I3
tp1076
I3
s(I10
I8
I9
tp1077
I1
s(I19
I98
I0
tp1078
I88
s(I34
I108
I6
tp1079
I40
s(I33
I2
I0
tp1080
I29
s(I39
I83
I0
tp1081
I53
s(I41
I6
I3
tp1082
I2
s(I50
I9
I5
tp1083
I2
s(I6
I113
I0
tp1084
I1645
s(I46
I110
I9
tp1085
I987
s(I48
I80
I0
tp1086
I27
s(I7
I0
I6
tp1087
I2
s(I41
I125
I5
tp1088
I4
s(I3
I9
I8
tp1089
I1
s(I39
I111
I9
tp1090
I572
s(I59
I21
I0
tp1091
I214
s(I59
I124
I6
tp1092
I1
s(I57
I124
I3
tp1093
I1118
s(I25
I0
I9
tp1094
I4
s(I25
I99
I6
tp1095
I2
s(I34
I11
I3
tp1096
I2
s(I34
I80
I3
tp1097
I212
s(I62
I121
I9
tp1098
I497
s(I42
I110
I8
tp1099
I6
s(I42
I7
I6
tp1100
I7
s(I36
I121
I8
tp1101
I11
s(I28
I103
I0
tp1102
I69
s(I8
I126
I6
tp1103
I8
s(I41
I124
I9
tp1104
I1697
s(I59
I17
I5
tp1105
I3
s(I21
I5
I8
tp1106
I1
s(I14
I116
I9
tp1107
I3
s(I20
I6
I0
tp1108
I234
s(I44
I118
I2
tp1109
I6
s(I63
I85
I6
tp1110
I49
s(I53
I121
I8
tp1111
I3
s(I37
I7
I3
tp1112
I6
s(I21
I115
I2
tp1113
I681
s(I55
I90
I0
tp1114
I32
s(I45
I3
I0
tp1115
I622
s(I16
I110
I2
tp1116
I1
s(I44
I0
I8
tp1117
I2
s(I9
I117
I8
tp1118
I480
s(I37
I100
I0
tp1119
I10
s(I43
I102
I9
tp1120
I495
s(I5
I126
I6
tp1121
I4
s(I55
I119
I5
tp1122
I28
s(I14
I112
I2
tp1123
I922
s(I48
I123
I3
tp1124
I9
s(I29
I126
I8
tp1125
I8
s(I9
I108
I0
tp1126
I1712
s(I64
I124
I5
tp1127
I55
s(I36
I123
I3
tp1128
I7
s(I48
I100
I9
tp1129
I538
s(I32
I104
I8
tp1130
I474
s(I25
I120
I9
tp1131
I17
s(I24
I30
I0
tp1132
I5
s(I60
I113
I6
tp1133
I62
s(I48
I7
I0
tp1134
I597
s(I54
I23
I6
tp1135
I1
s(I41
I127
I3
tp1136
I10
s(I63
I10
I8
tp1137
I46
s(I9
I113
I5
tp1138
I8
s(I59
I19
I2
tp1139
I2
s(I59
I122
I0
tp1140
I398
s(I14
I81
I0
tp1141
I40
s(I10
I124
I6
tp1142
I1
s(I16
I13
I0
tp1143
I18
s(I34
I13
I5
tp1144
I1
s(I24
I1
I3
tp1145
I3
s(I24
I90
I3
tp1146
I1
s(I47
I8
I6
tp1147
I1
s(I18
I89
I0
tp1148
I69
s(I45
I104
I3
tp1149
I3
s(I39
I113
I2
tp1150
I2
s(I47
I10
I8
tp1151
I1
s(I10
I8
I0
tp1152
I34
s(I19
I98
I9
tp1153
I1
s(I44
I29
I2
tp1154
I2
s(I19
I88
I8
tp1155
I1
s(I18
I108
I6
tp1156
I3
s(I21
I117
I0
tp1157
I3881
s(I27
I5
I3
tp1158
I1
s(I36
I12
I8
tp1159
I1
s(I36
I101
I6
tp1160
I1
s(I10
I16
I0
tp1161
I7
s(I35
I9
I0
tp1162
I501
s(I56
I106
I3
tp1163
I5
s(I46
I110
I0
tp1164
I212
s(I38
I90
I9
tp1165
I571
s(I5
I112
I8
tp1166
I9
s(I17
I111
I0
tp1167
I4
s(I38
I121
I0
tp1168
I681
s(I18
I120
I6
tp1169
I16
s(I21
I105
I5
tp1170
I2
s(I17
I76
I9
tp1171
I2
s(I36
I0
I5
tp1172
I2
s(I42
I120
I0
tp1173
I26
s(I43
I121
I2
tp1174
I6
s(I27
I91
I5
tp1175
I2
s(I46
I13
I5
tp1176
I2
s(I46
I106
I5
tp1177
I3
s(I20
I91
I0
tp1178
I47
s(I26
I109
I9
tp1179
I384
s(I60
I2
I5
tp1180
I1
s(I59
I120
I2
tp1181
I1
s(I55
I121
I0
tp1182
I37
s(I30
I15
I3
tp1183
I1
s(I39
I2
I5
tp1184
I3
s(I47
I14
I0
tp1185
I1706
s(I8
I122
I2
tp1186
I14
s(I46
I9
I8
tp1187
I1
s(I32
I117
I6
tp1188
I2
s(I36
I12
I2
tp1189
I11
s(I15
I4
I0
tp1190
I27
s(I33
I111
I6
tp1191
I1
s(I51
I106
I5
tp1192
I1
s(I29
I104
I0
tp1193
I75
s(I57
I116
I2
tp1194
I10
s(I48
I100
I0
tp1195
I58
s(I1
I120
I0
tp1196
I1
s(I23
I114
I9
tp1197
I11
s(I19
I123
I5
tp1198
I7
s(I53
I3
I9
tp1199
I5
s(I28
I111
I3
tp1200
I215
s(I5
I21
I3
tp1201
I1
s(I38
I8
I5
tp1202
I11
s(I59
I122
I9
tp1203
I2204
s(I28
I112
I9
tp1204
I6
s(I62
I13
I9
tp1205
I2167
s(I55
I123
I9
tp1206
I1581
s(I61
I38
I2
tp1207
I1
s(I39
I99
I5
tp1208
I55
s(I51
I102
I0
tp1209
I60
s(I44
I126
I3
tp1210
I5
s(I28
I83
I0
tp1211
I29
s(I21
I107
I3
tp1212
I12
s(I42
I19
I0
tp1213
I31
s(I60
I127
I5
tp1214
I3
s(I16
I118
I3
tp1215
I20
s(I19
I28
I0
tp1216
I1
s(I25
I116
I5
tp1217
I1
s(I18
I89
I9
tp1218
I513
s(I18
I99
I8
tp1219
I1
s(I52
I4
I6
tp1220
I2
s(I55
I2
I9
tp1221
I444
s(I10
I109
I0
tp1222
I1765
s(I50
I6
I2
tp1223
I1
s(I37
I124
I3
tp1224
I4
s(I11
I13
I0
tp1225
I6
s(I14
I104
I3
tp1226
I614
s(I43
I24
I3
tp1227
I1
s(I18
I126
I5
tp1228
I7
s(I30
I9
I5
tp1229
I4
s(I36
I26
I0
tp1230
I15
s(I46
I117
I9
tp1231
I1
s(I60
I99
I0
tp1232
I227
s(I52
I21
I6
tp1233
I1
s(I61
I7
I0
tp1234
I277
s(I32
I115
I0
tp1235
I1398
s(I38
I90
I0
tp1236
I6
s(I28
I125
I8
tp1237
I2
s(I28
I114
I6
tp1238
I12
s(I15
I93
I0
tp1239
I1
s(I2
I0
I3
tp1240
I6
s(I5
I10
I0
tp1241
I8
s(I17
I113
I8
tp1242
I4280
s(I7
I107
I8
tp1243
I6
s(I44
I120
I8
tp1244
I3
s(I7
I113
I9
tp1245
I338
s(I53
I127
I2
tp1246
I1095
s(I30
I5
I0
tp1247
I520
s(I48
I98
I2
tp1248
I1
s(I52
I6
I3
tp1249
I4
s(I25
I1
I6
tp1250
I1
s(I63
I8
I3
tp1251
I8
s(I6
I3
I3
tp1252
I2
s(I64
I3
I0
tp1253
I189
s(I7
I111
I5
tp1254
I2025
s(I41
I80
I0
tp1255
I215
s(I18
I124
I2
tp1256
I8
s(I32
I9
I0
tp1257
I208
s(I16
I116
I5
tp1258
I5
s(I19
I117
I0
tp1259
I96
s(I6
I121
I8
tp1260
I1
s(I35
I106
I9
tp1261
I170
s(I62
I18
I2
tp1262
I2
s(I61
I108
I5
tp1263
I21
s(I48
I1
I6
tp1264
I3
s(I45
I116
I9
tp1265
I7
s(I32
I18
I8
tp1266
I1
s(I11
I114
I0
tp1267
I2356
s(I61
I115
I3
tp1268
I1
s(I29
I104
I9
tp1269
I1
s(I7
I115
I6
tp1270
I1
s(I56
I30
I3
tp1271
I1
s(I59
I36
I0
tp1272
I18
s(I33
I118
I3
tp1273
I1
s(I39
I95
I5
tp1274
I3
s(I1
I120
I9
tp1275
I21
s(I26
I12
I0
tp1276
I188
s(I38
I1
I9
tp1277
I2
s(I24
I123
I9
tp1278
I9
s(I43
I1
I3
tp1279
I4
s(I52
I0
I8
tp1280
I11
s(I51
I5
I0
tp1281
I1326
s(I26
I7
I0
tp1282
I7
s(I63
I123
I9
tp1283
I2215
s(I28
I112
I0
tp1284
I1753
s(I2
I125
I5
tp1285
I1
s(I52
I25
I0
tp1286
I7
s(I17
I115
I6
tp1287
I11
s(I51
I102
I9
tp1288
I540
s(I20
I116
I9
tp1289
I14
s(I57
I112
I6
tp1290
I213
s(I35
I126
I5
tp1291
I1
s(I30
I7
I2
tp1292
I3
s(I26
I0
I5
tp1293
I1
s(I10
I78
I0
tp1294
I6
s(I19
I119
I9
tp1295
I12
s(I3
I111
I5
tp1296
I128
s(I8
I114
I3
tp1297
I10
s(I51
I1
I5
tp1298
I1
s(I63
I14
I5
tp1299
I3
s(I25
I83
I2
tp1300
I2
s(I53
I30
I3
tp1301
I1
s(I28
I116
I5
tp1302
I5
s(I24
I115
I5
tp1303
I1858
s(I2
I97
I0
tp1304
I5
s(I46
I125
I2
tp1305
I4
s(I8
I107
I9
tp1306
I6
s(I64
I1
I2
tp1307
I411
s(I70
I125
I0
tp1308
I208
s(I38
I30
I8
tp1309
I1
s(I41
I82
I2
tp1310
I24
s(I62
I119
I8
tp1311
I3
s(I37
I19
I0
tp1312
I37
s(I5
I109
I6
tp1313
I13
s(I27
I114
I5
tp1314
I4
s(I38
I108
I6
tp1315
I5
s(I52
I103
I0
tp1316
I60
s(I19
I99
I0
tp1317
I484
s(I29
I84
I0
tp1318
I29
s(I53
I18
I6
tp1319
I1
s(I24
I111
I0
tp1320
I1084
s(I46
I121
I9
tp1321
I2
s(I26
I78
I8
tp1322
I23
s(I7
I113
I0
tp1323
I113
s(I7
I126
I9
tp1324
I4
s(I14
I125
I5
tp1325
I3
s(I19
I102
I8
tp1326
I5
s(I41
I20
I8
tp1327
I1
s(I16
I126
I0
tp1328
I23
s(I44
I10
I9
tp1329
I9
s(I50
I23
I2
tp1330
I1
s(I8
I116
I8
tp1331
I30
s(I51
I90
I0
tp1332
I256
s(I41
I115
I0
tp1333
I50
s(I28
I118
I2
tp1334
I1521
s(I37
I116
I2
tp1335
I5
s(I14
I96
I0
tp1336
I4
s(I3
I114
I5
tp1337
I676
s(I53
I115
I6
tp1338
I1
s(I33
I124
I0
tp1339
I2374
s(I39
I8
I6
tp1340
I17
s(I19
I107
I8
tp1341
I2
s(I3
I109
I3
tp1342
I6
s(I14
I92
I3
tp1343
I490
s(I2
I8
I0
tp1344
I2
s(I52
I19
I5
tp1345
I1
s(I70
I127
I2
tp1346
I8
s(I53
I119
I3
tp1347
I1
s(I9
I120
I9
tp1348
I9
s(I27
I9
I0
tp1349
I93
s(I51
I32
I0
tp1350
I1
s(I32
I94
I2
tp1351
I264
s(I38
I110
I0
tp1352
I1461
s(I28
I21
I0
tp1353
I1
s(I41
I94
I6
tp1354
I2
s(I42
I105
I0
tp1355
I218
s(I42
I14
I2
tp1356
I1
s(I48
I19
I9
tp1357
I2
s(I35
I93
I3
tp1358
I1
s(I30
I89
I0
tp1359
I1
s(I20
I116
I0
tp1360
I1955
s(I23
I85
I3
tp1361
I26
s(I21
I14
I0
tp1362
I2
s(I38
I13
I5
tp1363
I8
s(I25
I110
I6
tp1364
I687
s(I12
I123
I0
tp1365
I130
s(I15
I106
I5
tp1366
I1816
s(I46
I1
I0
tp1367
I1201
s(I64
I119
I0
tp1368
I35
s(I41
I13
I2
tp1369
I1
s(I47
I25
I0
tp1370
I211
s(I11
I122
I3
tp1371
I16
s(I53
I120
I9
tp1372
I2
s(I56
I22
I0
tp1373
I221
s(I37
I109
I8
tp1374
I2
s(I30
I3
I6
tp1375
I2
s(I39
I14
I0
tp1376
I456
s(I19
I105
I6
tp1377
I1
s(I34
I0
I2
tp1378
I11
s(I34
I105
I0
tp1379
I88
s(I52
I103
I9
tp1380
I541
s(I61
I88
I3
tp1381
I49
s(I54
I120
I0
tp1382
I17
s(I63
I2
I9
tp1383
I2182
s(I27
I82
I9
tp1384
I26
s(I55
I105
I2
tp1385
I2
s(I42
I90
I8
tp1386
I5
s(I26
I120
I0
tp1387
I13
s(I50
I120
I2
tp1388
I1
s(I59
I115
I8
tp1389
I5
s(I17
I7
I0
tp1390
I71
s(I51
I121
I0
tp1391
I31
s(I47
I126
I2
tp1392
I7
s(I37
I87
I2
tp1393
I2
s(I36
I104
I5
tp1394
I1
s(I42
I0
I0
tp1395
I642
s(I63
I121
I6
tp1396
I56
s(I43
I118
I0
tp1397
I1980
s(I33
I95
I0
tp1398
I7
s(I20
I106
I2
tp1399
I124
s(I45
I97
I9
tp1400
I533
s(I0
I121
I0
tp1401
I8
s(I33
I124
I9
tp1402
I14
s(I54
I109
I3
tp1403
I5
s(I25
I104
I0
tp1404
I542
s(I46
I3
I2
tp1405
I7
s(I21
I126
I8
tp1406
I7
s(I54
I126
I9
tp1407
I588
s(I35
I14
I8
tp1408
I1
s(I63
I125
I3
tp1409
I5
s(I50
I0
I6
tp1410
I1
s(I6
I104
I3
tp1411
I22
s(I61
I22
I0
tp1412
I22
s(I62
I32
I0
tp1413
I44
s(I52
I83
I0
tp1414
I28
s(I39
I12
I2
tp1415
I2
s(I45
I27
I3
tp1416
I2
s(I29
I0
I0
tp1417
I916
s(I44
I105
I8
tp1418
I1
s(I63
I94
I0
tp1419
I30
s(I43
I23
I6
tp1420
I1
s(I30
I122
I0
tp1421
I2199
s(I54
I3
I0
tp1422
I1
s(I28
I126
I3
tp1423
I4
s(I55
I111
I0
tp1424
I55
s(I70
I123
I6
tp1425
I152
s(I35
I116
I6
tp1426
I3
s(I12
I88
I0
tp1427
I15
s(I12
I1
I6
tp1428
I1
s(I59
I113
I6
tp1429
I1247
s(I19
I8
I9
tp1430
I3
s(I37
I0
I2
tp1431
I5
s(I46
I1
I9
tp1432
I1726
s(I21
I124
I3
tp1433
I10
s(I32
I26
I0
tp1434
I15
s(I60
I14
I9
tp1435
I2153
s(I6
I110
I8
tp1436
I64
s(I56
I115
I0
tp1437
I3
s(I36
I1
I6
tp1438
I5
s(I6
I112
I9
tp1439
I10
s(I24
I105
I6
tp1440
I41
s(I52
I114
I6
tp1441
I2
s(I1
I3
I8
tp1442
I6
s(I57
I15
I0
tp1443
I1
s(I0
I0
I0
tp1444
I3690
s(I56
I12
I8
tp1445
I6
s(I11
I101
I0
tp1446
I69
s(I44
I113
I6
tp1447
I19
s(I34
I105
I9
tp1448
I490
s(I34
I83
I8
tp1449
I2
s(I36
I9
I2
tp1450
I8
s(I36
I98
I0
tp1451
I1
s(I32
I6
I5
tp1452
I2
s(I41
I9
I6
tp1453
I82
s(I28
I120
I8
tp1454
I8
s(I9
I85
I5
tp1455
I1
s(I61
I127
I0
tp1456
I31
s(I51
I20
I0
tp1457
I21
s(I18
I12
I0
tp1458
I37
s(I33
I122
I6
tp1459
I2
s(I30
I78
I9
tp1460
I12
s(I23
I126
I5
tp1461
I6
s(I29
I2
I2
tp1462
I12
s(I43
I21
I0
tp1463
I192
s(I45
I122
I8
tp1464
I7
s(I62
I1
I5
tp1465
I3
s(I52
I21
I3
tp1466
I1
s(I30
I109
I6
tp1467
I215
s(I35
I114
I0
tp1468
I1773
s(I0
I121
I9
tp1469
I18
s(I50
I124
I6
tp1470
I2
s(I12
I94
I2
tp1471
I67
s(I12
I7
I0
tp1472
I65
s(I5
I127
I3
tp1473
I15
s(I23
I98
I0
tp1474
I542
s(I37
I2
I0
tp1475
I1
s(I62
I126
I9
tp1476
I2218
s(I55
I14
I5
tp1477
I371
s(I36
I108
I9
tp1478
I562
s(I16
I99
I5
tp1479
I1
s(I52
I9
I6
tp1480
I8
s(I55
I17
I3
tp1481
I8
s(I20
I110
I6
tp1482
I4
s(I52
I83
I9
tp1483
I1
s(I37
I121
I8
tp1484
I1
s(I44
I119
I0
tp1485
I1997
s(I24
I0
I6
tp1486
I2
s(I27
I127
I5
tp1487
I8
s(I45
I2
I6
tp1488
I10
s(I41
I11
I8
tp1489
I1
s(I16
I111
I0
tp1490
I70
s(I43
I126
I3
tp1491
I1
s(I52
I116
I5
tp1492
I1
s(I6
I93
I5
tp1493
I1
s(I37
I99
I2
tp1494
I2
s(I14
I113
I0
tp1495
I2913
s(I14
I14
I2
tp1496
I92
s(I19
I8
I2
tp1497
I1
s(I41
I89
I8
tp1498
I6
s(I62
I124
I6
tp1499
I66
s(I15
I96
I6
tp1500
I1
s(I33
I3
I0
tp1501
I861
s(I41
I7
I5
tp1502
I10
s(I25
I127
I9
tp1503
I1
s(I6
I112
I0
tp1504
I101
s(I56
I105
I8
tp1505
I13
s(I46
I119
I8
tp1506
I6
s(I48
I95
I0
tp1507
I1
s(I45
I99
I6
tp1508
I1
s(I25
I92
I0
tp1509
I403
s(I12
I5
I2
tp1510
I1
s(I2
I112
I2
tp1511
I6
s(I27
I24
I0
tp1512
I3
s(I36
I120
I8
tp1513
I3
s(I50
I7
I6
tp1514
I7
s(I35
I12
I3
tp1515
I3
s(I63
I115
I8
tp1516
I16
s(I44
I3
I5
tp1517
I8
s(I6
I124
I5
tp1518
I1
s(I43
I112
I6
tp1519
I18
s(I52
I118
I2
tp1520
I2
s(I8
I125
I6
tp1521
I9
s(I70
I3
I5
tp1522
I2
s(I51
I10
I8
tp1523
I3
s(I63
I106
I0
tp1524
I395
s(I9
I21
I6
tp1525
I24
s(I24
I126
I2
tp1526
I12
s(I20
I5
I0
tp1527
I175
s(I15
I101
I6
tp1528
I38
s(I44
I30
I0
tp1529
I17
s(I28
I1
I3
tp1530
I2
s(I53
I122
I8
tp1531
I4
s(I21
I116
I2
tp1532
I1210
s(I60
I118
I6
tp1533
I210
s(I44
I7
I8
tp1534
I4
s(I56
I107
I3
tp1535
I208
s(I12
I100
I0
tp1536
I2
s(I36
I127
I9
tp1537
I9
s(I35
I114
I9
tp1538
I457
s(I47
I81
I6
tp1539
I1
s(I47
I40
I0
tp1540
I1
s(I37
I101
I0
tp1541
I1
s(I14
I115
I2
tp1542
I11
s(I14
I8
I0
tp1543
I58
s(I7
I106
I5
tp1544
I2
s(I41
I91
I6
tp1545
I4
s(I3
I99
I9
tp1546
I954
s(I15
I102
I0
tp1547
I1
s(I30
I112
I6
tp1548
I1
s(I60
I122
I3
tp1549
I8
s(I63
I16
I0
tp1550
I301
s(I17
I110
I6
tp1551
I1
s(I24
I29
I0
tp1552
I1
s(I30
I105
I2
tp1553
I14
s(I48
I6
I0
tp1554
I12
s(I57
I3
I6
tp1555
I6
s(I37
I121
I5
tp1556
I7
s(I54
I11
I2
tp1557
I1026
s(I10
I94
I9
tp1558
I36
s(I41
I98
I6
tp1559
I55
s(I53
I120
I3
tp1560
I2
s(I62
I122
I5
tp1561
I54
s(I30
I12
I3
tp1562
I1
s(I21
I105
I9
tp1563
I1
s(I64
I103
I2
tp1564
I329
s(I42
I125
I9
tp1565
I1711
s(I35
I83
I9
tp1566
I395
s(I35
I10
I5
tp1567
I2
s(I47
I9
I2
tp1568
I6
s(I8
I123
I0
tp1569
I4544
s(I9
I23
I0
tp1570
I1
s(I43
I89
I0
tp1571
I1
s(I14
I113
I9
tp1572
I11
s(I36
I3
I8
tp1573
I1
s(I33
I117
I8
tp1574
I1648
s(I64
I99
I9
tp1575
I7
s(I45
I6
I2
tp1576
I4
s(I1
I127
I2
tp1577
I8
s(I60
I116
I8
tp1578
I1498
s(I25
I127
I0
tp1579
I16
s(I6
I122
I8
tp1580
I8
s(I46
I105
I0
tp1581
I13
s(I6
I26
I2
tp1582
I47
s(I60
I29
I0
tp1583
I17
s(I23
I3
I6
tp1584
I1
s(I5
I113
I8
tp1585
I2
s(I17
I104
I0
tp1586
I1
s(I35
I107
I5
tp1587
I595
s(I57
I24
I9
tp1588
I1
s(I38
I19
I2
tp1589
I3
s(I54
I106
I9
tp1590
I543
s(I9
I111
I6
tp1591
I12
s(I62
I120
I2
tp1592
I10
s(I5
I104
I0
tp1593
I1274
s(I60
I120
I5
tp1594
I3
s(I44
I96
I9
tp1595
I532
s(I53
I6
I0
tp1596
I1
s(I28
I108
I8
tp1597
I1
s(I48
I92
I0
tp1598
I53
s(I20
I90
I0
tp1599
I26
s(I54
I16
I0
tp1600
I588
s(I37
I123
I3
tp1601
I2
s(I21
I87
I2
tp1602
I26
s(I55
I126
I0
tp1603
I232
s(I64
I2
I9
tp1604
I39
s(I61
I112
I9
tp1605
I2036
s(I23
I100
I6
tp1606
I2
s(I57
I121
I5
tp1607
I304
s(I47
I116
I8
tp1608
I6
s(I62
I27
I6
tp1609
I45
s(I8
I121
I2
tp1610
I1
s(I54
I28
I5
tp1611
I1
s(I59
I101
I3
tp1612
I2
s(I24
I122
I6
tp1613
I5
s(I36
I95
I3
tp1614
I6
s(I11
I115
I9
tp1615
I5
s(I23
I1
I5
tp1616
I8
s(I29
I105
I0
tp1617
I312
s(I38
I126
I9
tp1618
I1
s(I39
I7
I8
tp1619
I5
s(I16
I105
I6
tp1620
I1818
s(I44
I98
I6
tp1621
I2
s(I50
I20
I9
tp1622
I3
s(I48
I127
I9
tp1623
I1
s(I54
I115
I8
tp1624
I1
s(I63
I98
I3
tp1625
I10
s(I6
I0
I3
tp1626
I16
s(I24
I118
I3
tp1627
I6
s(I10
I1
I5
tp1628
I1
s(I60
I36
I6
tp1629
I7
s(I28
I9
I2
tp1630
I5
s(I18
I125
I0
tp1631
I2118
s(I5
I106
I2
tp1632
I3
s(I47
I22
I9
tp1633
I1
s(I53
I95
I0
tp1634
I1
s(I43
I4
I0
tp1635
I20
s(I18
I98
I8
tp1636
I1
s(I51
I8
I3
tp1637
I5
s(I26
I110
I5
tp1638
I1
s(I56
I6
I9
tp1639
I1
s(I6
I103
I6
tp1640
I4
s(I15
I94
I5
tp1641
I514
s(I11
I117
I2
tp1642
I31
s(I45
I80
I0
tp1643
I1
s(I35
I101
I0
tp1644
I1
s(I27
I123
I8
tp1645
I8
s(I42
I113
I5
tp1646
I26
s(I44
I5
I3
tp1647
I5
s(I56
I95
I9
tp1648
I1
s(I42
I92
I6
tp1649
I10
s(I61
I111
I2
tp1650
I2
s(I51
I4
I6
tp1651
I9
s(I54
I113
I3
tp1652
I10
s(I56
I2
I2
tp1653
I4
s(I24
I120
I8
tp1654
I17
s(I2
I122
I5
tp1655
I3685
s(I17
I104
I9
tp1656
I6
s(I25
I118
I6
tp1657
I12
s(I1
I6
I9
tp1658
I1
s(I53
I15
I9
tp1659
I1
s(I30
I4
I0
tp1660
I19
s(I42
I16
I9
tp1661
I3
s(I64
I111
I5
tp1662
I1
s(I44
I9
I6
tp1663
I8
s(I47
I1
I3
tp1664
I7
s(I12
I110
I6
tp1665
I1
s(I28
I107
I0
tp1666
I115
s(I55
I29
I0
tp1667
I6
s(I42
I80
I3
tp1668
I24
s(I26
I108
I2
tp1669
I7
s(I63
I9
I5
tp1670
I1
s(I64
I2
I0
tp1671
I2331
s(I51
I101
I6
tp1672
I6
s(I35
I103
I9
tp1673
I267
s(I57
I20
I5
tp1674
I202
s(I37
I18
I6
tp1675
I1
s(I8
I86
I2
tp1676
I1
s(I39
I88
I8
tp1677
I5
s(I19
I114
I0
tp1678
I2510
s(I34
I124
I6
tp1679
I2
s(I50
I14
I6
tp1680
I1
s(I46
I8
I3
tp1681
I7
s(I46
I97
I3
tp1682
I1
s(I33
I18
I0
tp1683
I15
s(I6
I4
I0
tp1684
I21
s(I6
I97
I0
tp1685
I493
s(I6
I14
I2
tp1686
I2
s(I46
I126
I9
tp1687
I1357
s(I11
I115
I0
tp1688
I2034
s(I64
I14
I5
tp1689
I4
s(I57
I117
I9
tp1690
I513
s(I23
I86
I9
tp1691
I1
s(I7
I112
I6
tp1692
I3
s(I41
I109
I5
tp1693
I2
s(I62
I112
I3
tp1694
I1
s(I52
I13
I2
tp1695
I21
s(I26
I15
I0
tp1696
I5
s(I25
I115
I6
tp1697
I1149
s(I47
I8
I0
tp1698
I1
s(I43
I14
I5
tp1699
I5
s(I42
I94
I8
tp1700
I3
s(I36
I105
I8
tp1701
I1240
s(I28
I119
I0
tp1702
I2326
s(I8
I110
I6
tp1703
I2029
s(I55
I102
I3
tp1704
I1
s(I11
I127
I5
tp1705
I2
s(I23
I5
I9
tp1706
I1
s(I18
I125
I9
tp1707
I6
s(I33
I14
I3
tp1708
I1
s(I33
I115
I2
tp1709
I9
s(I36
I116
I5
tp1710
I7
s(I20
I22
I0
tp1711
I5
s(I35
I0
I6
tp1712
I6
s(I44
I102
I2
tp1713
I6
s(I33
I23
I9
tp1714
I1
s(I39
I28
I2
tp1715
I1
s(I43
I83
I8
tp1716
I1
s(I46
I39
I0
tp1717
I2
s(I46
I124
I6
tp1718
I6
s(I70
I124
I0
tp1719
I303
s(I35
I123
I8
tp1720
I3
s(I9
I101
I8
tp1721
I3
s(I5
I110
I6
tp1722
I75
s(I29
I78
I8
tp1723
I2
s(I26
I84
I2
tp1724
I6
s(I64
I35
I5
tp1725
I2
s(I36
I107
I3
tp1726
I4
s(I41
I112
I5
tp1727
I3
s(I6
I8
I0
tp1728
I8
s(I24
I110
I0
tp1729
I13
s(I1
I6
I2
tp1730
I1
s(I7
I118
I0
tp1731
I3497
s(I41
I111
I3
tp1732
I5
s(I63
I16
I3
tp1733
I9
s(I36
I118
I2
tp1734
I7
s(I48
I119
I6
tp1735
I5
s(I34
I98
I5
tp1736
I258
s(I15
I117
I5
tp1737
I4
s(I51
I0
I2
tp1738
I7
s(I63
I126
I9
tp1739
I3
s(I47
I24
I6
tp1740
I2
s(I11
I125
I3
tp1741
I1
s(I64
I8
I8
tp1742
I3
s(I47
I88
I8
tp1743
I2
s(I39
I9
I2
tp1744
I2
s(I19
I114
I9
tp1745
I8
s(I44
I13
I2
tp1746
I1
s(I19
I104
I8
tp1747
I1
s(I17
I116
I8
tp1748
I4
s(I11
I94
I0
tp1749
I355
s(I35
I111
I5
tp1750
I7
s(I59
I0
I0
tp1751
I84
s(I46
I126
I0
tp1752
I1685
s(I26
I32
I0
tp1753
I5
s(I35
I121
I6
tp1754
I11
s(I50
I121
I0
tp1755
I1687
s(I8
I82
I6
tp1756
I59
s(I17
I95
I0
tp1757
I1
s(I17
I6
I6
tp1758
I1
s(I51
I33
I0
tp1759
I2
s(I38
I0
I2
tp1760
I8
s(I38
I105
I0
tp1761
I3
s(I18
I104
I6
tp1762
I3
s(I30
I99
I8
tp1763
I6
s(I42
I104
I0
tp1764
I3
s(I60
I9
I3
tp1765
I31
s(I43
I105
I2
tp1766
I2
s(I46
I122
I5
tp1767
I11
s(I54
I105
I0
tp1768
I60
s(I20
I107
I0
tp1769
I165
s(I26
I125
I9
tp1770
I6
s(I7
I116
I2
tp1771
I2
s(I57
I107
I6
tp1772
I7
s(I60
I18
I5
tp1773
I1
s(I21
I15
I0
tp1774
I2
s(I64
I109
I8
tp1775
I51
s(I50
I9
I8
tp1776
I4
s(I45
I22
I0
tp1777
I1
s(I26
I88
I2
tp1778
I6
s(I19
I106
I3
tp1779
I2
s(I12
I122
I0
tp1780
I2
s(I62
I101
I5
tp1781
I1
s(I46
I0
I0
tp1782
I243
s(I61
I14
I6
tp1783
I7
s(I64
I118
I0
tp1784
I2215
s(I41
I14
I2
tp1785
I7
s(I63
I5
I3
tp1786
I24
s(I15
I2
I8
tp1787
I2
s(I37
I119
I0
tp1788
I6
s(I38
I121
I9
tp1789
I1
s(I43
I98
I9
tp1790
I695
s(I32
I114
I9
tp1791
I2
s(I9
I127
I0
tp1792
I98
s(I37
I110
I8
tp1793
I7
s(I33
I127
I6
tp1794
I7
s(I32
I95
I9
tp1795
I11
s(I29
I120
I0
tp1796
I2348
s(I56
I107
I5
tp1797
I7
s(I34
I3
I2
tp1798
I2
s(I34
I104
I0
tp1799
I18
s(I26
I98
I8
tp1800
I74
s(I16
I90
I6
tp1801
I446
s(I53
I19
I9
tp1802
I4
s(I28
I127
I3
tp1803
I10
s(I59
I105
I0
tp1804
I56
s(I46
I120
I2
tp1805
I2
s(I57
I18
I3
tp1806
I1
s(I54
I118
I8
tp1807
I1
s(I50
I123
I2
tp1808
I1
s(I33
I123
I3
tp1809
I13
s(I5
I124
I9
tp1810
I2
s(I17
I0
I0
tp1811
I211
s(I51
I118
I0
tp1812
I797
s(I12
I116
I9
tp1813
I19
s(I48
I25
I6
tp1814
I2
s(I21
I123
I3
tp1815
I2
s(I42
I3
I0
tp1816
I16
s(I60
I15
I5
tp1817
I7
s(I16
I102
I3
tp1818
I1
s(I37
I117
I9
tp1819
I1328
s(I33
I88
I0
tp1820
I29
s(I52
I20
I6
tp1821
I2
s(I55
I18
I9
tp1822
I1
s(I1
I2
I6
tp1823
I26
s(I57
I14
I6
tp1824
I1
s(I37
I108
I3
tp1825
I4
s(I21
I88
I0
tp1826
I1
s(I38
I120
I0
tp1827
I23
s(I14
I120
I3
tp1828
I907
s(I48
I115
I2
tp1829
I1
s(I35
I20
I0
tp1830
I9
s(I5
I10
I9
tp1831
I7
s(I18
I110
I5
tp1832
I2
s(I36
I10
I0
tp1833
I492
s(I45
I127
I6
tp1834
I7
s(I60
I115
I0
tp1835
I10
s(I63
I114
I5
tp1836
I1
s(I50
I3
I6
tp1837
I7
s(I53
I11
I3
tp1838
I20
s(I62
I10
I8
tp1839
I159
s(I2
I11
I9
tp1840
I1
s(I61
I23
I0
tp1841
I237
s(I50
I121
I9
tp1842
I592
s(I5
I122
I0
tp1843
I3
s(I36
I21
I3
tp1844
I2
s(I17
I97
I8
tp1845
I667
s(I38
I105
I9
tp1846
I29
s(I25
I101
I5
tp1847
I3
s(I18
I104
I9
tp1848
I9
s(I43
I20
I6
tp1849
I2
s(I15
I109
I6
tp1850
I14
s(I30
I117
I0
tp1851
I1726
s(I35
I117
I2
tp1852
I8
s(I0
I122
I9
tp1853
I21
s(I56
I15
I5
tp1854
I9
s(I12
I95
I0
tp1855
I5
s(I17
I2
I2
tp1856
I7
s(I39
I17
I3
tp1857
I3
s(I23
I125
I2
tp1858
I2
s(I7
I95
I5
tp1859
I36
s(I47
I125
I0
tp1860
I1
s(I18
I108
I2
tp1861
I4
s(I34
I120
I2
tp1862
I7
s(I16
I100
I5
tp1863
I1
s(I43
I117
I6
tp1864
I5
s(I45
I81
I8
tp1865
I29
s(I61
I124
I5
tp1866
I129
s(I39
I114
I0
tp1867
I50
s(I26
I113
I5
tp1868
I2
s(I57
I8
I0
tp1869
I205
s(I57
I103
I2
tp1870
I1
s(I27
I121
I2
tp1871
I11
s(I11
I98
I0
tp1872
I450
s(I29
I120
I9
tp1873
I8
s(I29
I98
I8
tp1874
I2
s(I38
I8
I3
tp1875
I5
s(I38
I113
I3
tp1876
I6
s(I25
I2
I0
tp1877
I32
s(I61
I2
I3
tp1878
I4
s(I33
I6
I3
tp1879
I7
s(I55
I13
I2
tp1880
I351
s(I26
I28
I0
tp1881
I1
s(I43
I113
I3
tp1882
I4
s(I52
I14
I9
tp1883
I1
s(I61
I25
I2
tp1884
I3
s(I61
I96
I0
tp1885
I37
s(I51
I21
I0
tp1886
I764
s(I18
I15
I0
tp1887
I3
s(I17
I99
I6
tp1888
I1
s(I51
I118
I9
tp1889
I1564
s(I35
I110
I5
tp1890
I2
s(I6
I114
I8
tp1891
I2273
s(I34
I7
I6
tp1892
I1
s(I26
I16
I5
tp1893
I1
s(I56
I116
I9
tp1894
I510
s(I50
I127
I6
tp1895
I7
s(I12
I6
I0
tp1896
I13
s(I2
I113
I0
tp1897
I2
s(I64
I17
I2
tp1898
I380
s(I55
I117
I6
tp1899
I3
s(I29
I96
I3
tp1900
I2
s(I29
I7
I3
tp1901
I4
s(I38
I14
I8
tp1902
I4
s(I37
I3
I0
tp1903
I381
s(I19
I121
I3
tp1904
I3
s(I28
I103
I2
tp1905
I4
s(I62
I28
I0
tp1906
I299
s(I52
I119
I0
tp1907
I796
s(I5
I29
I0
tp1908
I23
s(I61
I1
I8
tp1909
I6
s(I70
I0
I5
tp1910
I1
s(I57
I10
I2
tp1911
I14
s(I57
I97
I0
tp1912
I263
s(I35
I79
I5
tp1913
I212
s(I9
I115
I6
tp1914
I8
s(I24
I127
I0
tp1915
I2191
s(I26
I94
I8
tp1916
I2
s(I55
I121
I6
tp1917
I69
s(I28
I2
I3
tp1918
I5
s(I37
I7
I5
tp1919
I1
s(I33
I0
I5
tp1920
I9
s(I51
I83
I8
tp1921
I1
s(I41
I4
I8
tp1922
I8
s(I16
I110
I0
tp1923
I2
s(I50
I7
I2
tp1924
I1
s(I61
I98
I2
tp1925
I1
s(I41
I99
I0
tp1926
I5
s(I37
I100
I2
tp1927
I1
s(I14
I112
I0
tp1928
I213
s(I16
I1
I3
tp1929
I2
s(I11
I105
I0
tp1930
I249
s(I34
I9
I8
tp1931
I1
s(I43
I16
I2
tp1932
I5
s(I15
I97
I2
tp1933
I2
s(I37
I120
I9
tp1934
I3
s(I33
I97
I5
tp1935
I7
s(I3
I126
I0
tp1936
I270
s(I9
I104
I9
tp1937
I5
s(I27
I109
I0
tp1938
I6
s(I27
I25
I0
tp1939
I7
s(I32
I110
I2
tp1940
I1240
s(I37
I88
I0
tp1941
I26
s(I52
I14
I0
tp1942
I298
s(I42
I89
I0
tp1943
I214
s(I48
I3
I9
tp1944
I1741
s(I53
I100
I0
tp1945
I251
s(I23
I101
I3
tp1946
I67
s(I44
I29
I0
tp1947
I3
s(I28
I0
I5
tp1948
I2
s(I18
I116
I3
tp1949
I9
s(I60
I117
I6
tp1950
I57
s(I25
I126
I6
tp1951
I142
s(I34
I117
I5
tp1952
I3
s(I12
I107
I0
tp1953
I3
s(I37
I89
I9
tp1954
I520
s(I15
I122
I5
tp1955
I21
s(I46
I17
I0
tp1956
I781
s(I52
I2
I5
tp1957
I1
s(I39
I122
I3
tp1958
I12
s(I57
I0
I3
tp1959
I5
s(I32
I83
I9
tp1960
I13
s(I17
I111
I2
tp1961
I1
s(I14
I11
I0
tp1962
I20
s(I38
I16
I0
tp1963
I218
s(I38
I121
I2
tp1964
I1
s(I62
I121
I0
tp1965
I9
s(I33
I14
I2
tp1966
I2
s(I5
I87
I2
tp1967
I59
s(I42
I120
I6
tp1968
I10
s(I63
I17
I0
tp1969
I132
s(I19
I121
I6
tp1970
I8
s(I34
I121
I0
tp1971
I892
s(I52
I119
I9
tp1972
I1567
s(I52
I109
I8
tp1973
I2
s(I15
I5
I0
tp1974
I73
s(I61
I104
I3
tp1975
I52
s(I7
I4
I0
tp1976
I30
s(I25
I95
I6
tp1977
I2
s(I56
I9
I3
tp1978
I6
s(I15
I0
I3
tp1979
I9
s(I17
I8
I8
tp1980
I1
s(I44
I124
I8
tp1981
I6
s(I3
I118
I5
tp1982
I77
s(I41
I30
I0
tp1983
I1
s(I16
I116
I8
tp1984
I11
s(I63
I21
I5
tp1985
I3
s(I43
I127
I8
tp1986
I2
s(I43
I5
I9
tp1987
I5
s(I8
I122
I0
tp1988
I67
s(I10
I21
I8
tp1989
I23
s(I63
I105
I6
tp1990
I59
s(I25
I91
I3
tp1991
I1
s(I21
I105
I0
tp1992
I699
s(I56
I5
I6
tp1993
I1
s(I43
I102
I0
tp1994
I72
s(I33
I111
I0
tp1995
I3
s(I20
I122
I2
tp1996
I14
s(I29
I104
I2
tp1997
I1
s(I25
I123
I2
tp1998
I3
s(I25
I97
I8
tp1999
I24
s(I21
I119
I0
tp2000
I2
s(I25
I120
I0
tp2001
I4254
s(I43
I123
I5
tp2002
I7
s(I46
I19
I2
tp2003
I1
s(I63
I109
I3
tp2004
I4
s(I3
I29
I0
tp2005
I2
s(I6
I88
I3
tp2006
I12
s(I61
I38
I0
tp2007
I15
s(I53
I32
I8
tp2008
I1
s(I28
I10
I0
tp2009
I83
s(I37
I18
I2
tp2010
I3
s(I62
I123
I2
tp2011
I2
s(I45
I11
I3
tp2012
I1
s(I10
I116
I6
tp2013
I20
s(I19
I28
I6
tp2014
I1
s(I53
I7
I0
tp2015
I804
s(I34
I123
I2
tp2016
I2
s(I43
I7
I6
tp2017
I2
s(I52
I4
I8
tp2018
I6
s(I61
I3
I5
tp2019
I77
s(I35
I4
I2
tp2020
I1
s(I54
I19
I0
tp2021
I1
s(I38
I94
I5
tp2022
I2
s(I41
I122
I2
tp2023
I1
s(I5
I118
I3
tp2024
I16
s(I64
I27
I8
tp2025
I1
s(I55
I127
I0
tp2026
I261
s(I17
I117
I5
tp2027
I14
s(I16
I9
I2
tp2028
I1
s(I28
I87
I9
tp2029
I1
s(I21
I117
I9
tp2030
I10
s(I42
I126
I5
tp2031
I4
s(I32
I106
I6
tp2032
I1
s(I35
I9
I9
tp2033
I1
s(I44
I6
I3
tp2034
I11
s(I9
I82
I8
tp2035
I59
s(I56
I96
I9
tp2036
I1
s(I37
I89
I0
tp2037
I1
s(I12
I113
I8
tp2038
I11
s(I46
I17
I9
tp2039
I1
s(I55
I24
I3
tp2040
I1
s(I48
I15
I5
tp2041
I1
s(I56
I3
I0
tp2042
I141
s(I24
I121
I6
tp2043
I7
s(I15
I93
I2
tp2044
I1
s(I48
I121
I8
tp2045
I11
s(I39
I29
I0
tp2046
I1
s(I57
I31
I0
tp2047
I6
s(I59
I10
I8
tp2048
I10
s(I3
I118
I3
tp2049
I6
s(I64
I96
I5
tp2050
I10
s(I32
I86
I3
tp2051
I5
s(I29
I113
I8
tp2052
I4
s(I60
I103
I9
tp2053
I11
s(I34
I121
I9
tp2054
I3
s(I34
I99
I8
tp2055
I1
s(I44
I14
I5
tp2056
I1
s(I26
I109
I0
tp2057
I600
s(I32
I22
I5
tp2058
I2
s(I5
I14
I9
tp2059
I1
s(I57
I27
I5
tp2060
I1
s(I18
I124
I0
tp2061
I43
s(I8
I87
I0
tp2062
I46
s(I42
I124
I2
tp2063
I6
s(I56
I0
I5
tp2064
I555
s(I29
I18
I2
tp2065
I1
s(I51
I127
I8
tp2066
I8
s(I7
I86
I9
tp2067
I1
s(I19
I117
I2
tp2068
I6
s(I12
I115
I3
tp2069
I31
s(I43
I5
I0
tp2070
I2374
s(I8
I112
I8
tp2071
I3
s(I45
I106
I8
tp2072
I1
s(I52
I32
I2
tp2073
I1
s(I33
I81
I8
tp2074
I2
s(I30
I93
I6
tp2075
I209
s(I23
I107
I8
tp2076
I2
s(I35
I98
I0
tp2077
I6
s(I41
I108
I9
tp2078
I1524
s(I53
I125
I5
tp2079
I7
s(I62
I113
I3
tp2080
I1
s(I27
I120
I8
tp2081
I2
s(I5
I111
I3
tp2082
I4
s(I64
I98
I2
tp2083
I9
s(I23
I114
I0
tp2084
I4095
s(I37
I91
I6
tp2085
I2
s(I62
I110
I9
tp2086
I2245
s(I32
I113
I0
tp2087
I27
s(I38
I36
I0
tp2088
I2
s(I56
I1
I2
tp2089
I1
s(I20
I126
I6
tp2090
I7
s(I61
I16
I8
tp2091
I3
s(I50
I112
I3
tp2092
I1
s(I34
I92
I2
tp2093
I7
s(I32
I84
I5
tp2094
I2
s(I44
I103
I0
tp2095
I73
s(I15
I124
I3
tp2096
I2
s(I27
I79
I5
tp2097
I2
s(I55
I2
I0
tp2098
I144
s(I61
I84
I9
tp2099
I1
s(I16
I95
I0
tp2100
I52
s(I43
I110
I3
tp2101
I1
s(I23
I8
I0
tp2102
I55
s(I47
I99
I0
tp2103
I58
s(I8
I14
I0
tp2104
I9
s(I42
I23
I2
tp2105
I1
s(I38
I7
I6
tp2106
I5
s(I19
I115
I0
tp2107
I1950
s(I56
I96
I0
tp2108
I228
s(I34
I127
I6
tp2109
I5
s(I34
I0
I9
tp2110
I9
s(I62
I108
I6
tp2111
I11
s(I15
I112
I6
tp2112
I6
s(I33
I19
I0
tp2113
I150
s(I61
I7
I9
tp2114
I1967
s(I25
I85
I8
tp2115
I166
s(I56
I3
I9
tp2116
I448
s(I6
I96
I0
tp2117
I23
s(I56
I121
I8
tp2118
I69
s(I44
I127
I5
tp2119
I1
s(I2
I101
I9
tp2120
I56
s(I33
I83
I6
tp2121
I2
s(I11
I112
I0
tp2122
I7
s(I36
I84
I9
tp2123
I400
s(I36
I119
I0
tp2124
I1860
s(I19
I111
I5
tp2125
I4
s(I41
I115
I2
tp2126
I3
s(I28
I118
I0
tp2127
I24
s(I62
I15
I2
tp2128
I6
s(I24
I107
I9
tp2129
I2
s(I8
I109
I6
tp2130
I2
s(I50
I114
I5
tp2131
I2
s(I53
I115
I0
tp2132
I13
s(I43
I32
I0
tp2133
I2
s(I17
I112
I9
tp2134
I35
s(I45
I13
I8
tp2135
I5
s(I44
I14
I0
tp2136
I825
s(I28
I17
I3
tp2137
I1
s(I37
I8
I5
tp2138
I5
s(I55
I0
I2
tp2139
I1
s(I45
I116
I0
tp2140
I1739
s(I56
I123
I3
tp2141
I304
s(I20
I112
I5
tp2142
I5
s(I50
I12
I9
tp2143
I2
s(I35
I120
I8
tp2144
I2
s(I47
I97
I6
tp2145
I6
s(I9
I102
I8
tp2146
I19
s(I27
I110
I0
tp2147
I733
s(I32
I94
I0
tp2148
I214
s(I38
I1
I0
tp2149
I1514
s(I15
I118
I0
tp2150
I3958
s(I21
I120
I9
tp2151
I1
s(I51
I5
I9
tp2152
I1748
s(I26
I101
I3
tp2153
I2
s(I54
I122
I9
tp2154
I1575
s(I63
I0
I0
tp2155
I314
s(I6
I11
I0
tp2156
I3
s(I30
I89
I2
tp2157
I5
s(I55
I95
I9
tp2158
I1
s(I54
I89
I0
tp2159
I32
s(I57
I106
I8
tp2160
I5
s(I53
I113
I9
tp2161
I505
s(I37
I105
I5
tp2162
I4
s(I55
I33
I0
tp2163
I18
s(I42
I116
I3
tp2164
I222
s(I26
I0
I2
tp2165
I4
s(I10
I78
I9
tp2166
I35
s(I12
I123
I2
tp2167
I6
s(I62
I106
I5
tp2168
I59
s(I30
I124
I3
tp2169
I2
s(I64
I119
I2
tp2170
I310
s(I42
I109
I9
tp2171
I1528
s(I53
I8
I9
tp2172
I1752
s(I8
I107
I0
tp2173
I1705
s(I35
I122
I3
tp2174
I3
s(I19
I78
I0
tp2175
I46
s(I9
I7
I0
tp2176
I32
s(I30
I98
I9
tp2177
I12
s(I59
I119
I5
tp2178
I33
s(I64
I106
I3
tp2179
I1
s(I29
I119
I2
tp2180
I457
s(I41
I18
I3
tp2181
I3
s(I16
I120
I5
tp2182
I12
s(I34
I0
I0
tp2183
I1988
s(I24
I12
I2
tp2184
I1
s(I11
I95
I0
tp2185
I39
s(I42
I12
I5
tp2186
I6
s(I64
I115
I9
tp2187
I15
s(I48
I21
I6
tp2188
I3
s(I21
I96
I3
tp2189
I1659
s(I59
I1
I0
tp2190
I365
s(I46
I121
I0
tp2191
I353
s(I26
I120
I6
tp2192
I10
s(I57
I104
I3
tp2193
I2
s(I0
I125
I3
tp2194
I16
s(I50
I120
I0
tp2195
I73
s(I36
I114
I6
tp2196
I1927
s(I5
I97
I8
tp2197
I3
s(I42
I114
I8
tp2198
I9
s(I17
I88
I0
tp2199
I64
s(I51
I121
I2
tp2200
I2
s(I38
I3
I2
tp2201
I2
s(I62
I104
I2
tp2202
I9
s(I15
I116
I2
tp2203
I1
s(I42
I0
I6
tp2204
I9
s(I63
I121
I0
tp2205
I265
s(I53
I22
I0
tp2206
I3
s(I28
I124
I8
tp2207
I7
s(I2
I105
I5
tp2208
I195
s(I33
I95
I2
tp2209
I53
s(I20
I106
I0
tp2210
I79
s(I37
I107
I3
tp2211
I1
s(I21
I0
I0
tp2212
I258
s(I21
I103
I2
tp2213
I72
s(I64
I18
I9
tp2214
I44
s(I45
I23
I0
tp2215
I210
s(I23
I116
I6
tp2216
I7
s(I16
I122
I2
tp2217
I10
s(I46
I3
I0
tp2218
I1
s(I15
I24
I3
tp2219
I1
s(I30
I126
I5
tp2220
I6
s(I62
I11
I6
tp2221
I44
s(I2
I8
I9
tp2222
I15
s(I43
I114
I9
tp2223
I581
s(I39
I115
I9
tp2224
I430
s(I70
I1
I8
tp2225
I11
s(I7
I121
I3
tp2226
I6
s(I9
I120
I0
tp2227
I4338
s(I59
I117
I3
tp2228
I197
s(I27
I110
I9
tp2229
I1891
s(I5
I121
I6
tp2230
I1
s(I29
I121
I0
tp2231
I1488
s(I38
I110
I9
tp2232
I569
s(I25
I3
I9
tp2233
I1
s(I34
I2
I6
tp2234
I3
s(I15
I118
I9
tp2235
I20
s(I24
I10
I0
tp2236
I195
s(I2
I81
I9
tp2237
I2
s(I55
I4
I6
tp2238
I3
s(I32
I114
I0
tp2239
I1068
s(I48
I19
I0
tp2240
I777
s(I16
I89
I6
tp2241
I67
s(I44
I82
I6
tp2242
I29
s(I63
I30
I8
tp2243
I45
s(I50
I4
I9
tp2244
I1742
s(I59
I15
I2
tp2245
I2
s(I52
I126
I3
tp2246
I1
s(I0
I123
I5
tp2247
I8
s(I0
I4
I5
tp2248
I10
s(I50
I35
I0
tp2249
I2
s(I17
I1
I0
tp2250
I1
s(I28
I25
I2
tp2251
I3
s(I18
I109
I0
tp2252
I57
s(I29
I108
I0
tp2253
I128
s(I24
I6
I5
tp2254
I2
s(I45
I124
I3
tp2255
I10
s(I56
I115
I2
tp2256
I305
s(I44
I126
I6
tp2257
I11
s(I60
I4
I6
tp2258
I1
s(I51
I24
I3
tp2259
I1
s(I26
I126
I5
tp2260
I2
s(I57
I15
I2
tp2261
I159
s(I36
I126
I6
tp2262
I1
s(I0
I0
I2
tp2263
I15
s(I56
I22
I9
tp2264
I1
s(I53
I111
I6
tp2265
I1
s(I21
I2
I2
tp2266
I142
s(I21
I89
I0
tp2267
I410
s(I11
I101
I2
tp2268
I18
s(I23
I122
I8
tp2269
I1
s(I35
I21
I0
tp2270
I141
s(I29
I107
I6
tp2271
I5
s(I46
I90
I0
tp2272
I53
s(I36
I9
I0
tp2273
I4
s(I36
I98
I6
tp2274
I70
s(I54
I1
I5
tp2275
I370
s(I60
I114
I0
tp2276
I2
s(I50
I93
I0
tp2277
I53
s(I62
I5
I8
tp2278
I16
s(I27
I82
I0
tp2279
I6
s(I17
I123
I0
tp2280
I46
s(I51
I20
I6
tp2281
I2
s(I56
I18
I2
tp2282
I6
s(I9
I122
I2
tp2283
I2
s(I24
I126
I9
tp2284
I1
s(I5
I123
I0
tp2285
I1130
s(I26
I81
I3
tp2286
I2
s(I29
I2
I0
tp2287
I2
s(I37
I14
I3
tp2288
I6
s(I55
I10
I8
tp2289
I1
s(I42
I0
I9
tp2290
I2
s(I64
I127
I5
tp2291
I3
s(I20
I79
I0
tp2292
I46
s(I47
I17
I3
tp2293
I1
s(I3
I94
I9
tp2294
I130
s(I26
I124
I2
tp2295
I4
s(I21
I0
I9
tp2296
I1
s(I64
I18
I0
tp2297
I134
s(I55
I116
I8
tp2298
I2
s(I51
I117
I6
tp2299
I2
s(I29
I127
I3
tp2300
I2
s(I16
I0
I6
tp2301
I1
s(I47
I114
I0
tp2302
I249
s(I37
I2
I6
tp2303
I12
s(I12
I98
I3
tp2304
I1
s(I46
I24
I3
tp2305
I3
s(I11
I120
I8
tp2306
I5
s(I39
I115
I0
tp2307
I1939
s(I19
I87
I0
tp2308
I395
s(I48
I26
I2
tp2309
I1
s(I47
I95
I5
tp2310
I1
s(I62
I32
I9
tp2311
I3
s(I48
I112
I0
tp2312
I611
s(I51
I113
I3
tp2313
I1
s(I23
I102
I9
tp2314
I2
s(I41
I93
I5
tp2315
I8
s(I25
I3
I0
tp2316
I208
s(I62
I96
I3
tp2317
I1
s(I24
I0
I8
tp2318
I4
s(I30
I122
I9
tp2319
I8
s(I10
I125
I5
tp2320
I1
s(I62
I8
I9
tp2321
I6
s(I50
I4
I0
tp2322
I1374
s(I34
I112
I3
tp2323
I6
s(I43
I126
I5
tp2324
I5
s(I25
I122
I6
tp2325
I4
s(I55
I111
I9
tp2326
I661
s(I5
I125
I2
tp2327
I5
s(I55
I118
I3
tp2328
I5
s(I42
I39
I0
tp2329
I3
s(I19
I8
I0
tp2330
I2
s(I18
I109
I9
tp2331
I4430
s(I18
I119
I8
tp2332
I12
s(I36
I3
I5
tp2333
I12
s(I62
I9
I9
tp2334
I2022
s(I54
I15
I2
tp2335
I10
s(I44
I86
I2
tp2336
I1
s(I63
I117
I6
tp2337
I68
s(I2
I107
I8
tp2338
I823
s(I11
I25
I0
tp2339
I1
s(I55
I127
I9
tp2340
I596
s(I12
I5
I0
tp2341
I4
s(I2
I112
I0
tp2342
I4
s(I39
I6
I0
tp2343
I1911
s(I20
I1
I3
tp2344
I1
s(I29
I8
I5
tp2345
I4
s(I3
I97
I2
tp2346
I2
s(I37
I4
I0
tp2347
I1597
s(I27
I113
I0
tp2348
I11
s(I29
I94
I8
tp2349
I3
s(I32
I111
I0
tp2350
I242
s(I10
I24
I0
tp2351
I1
s(I8
I117
I3
tp2352
I1
s(I62
I31
I0
tp2353
I3
s(I2
I111
I3
tp2354
I6
s(I52
I118
I0
tp2355
I22
s(I5
I30
I0
tp2356
I1
s(I64
I92
I5
tp2357
I12
s(I39
I113
I6
tp2358
I5
s(I70
I3
I3
tp2359
I4
s(I7
I127
I8
tp2360
I2
s(I41
I96
I5
tp2361
I1
s(I24
I126
I0
tp2362
I16
s(I30
I17
I0
tp2363
I143
s(I48
I126
I2
tp2364
I1
s(I10
I80
I6
tp2365
I2
s(I7
I102
I0
tp2366
I529
s(I41
I95
I3
tp2367
I5
s(I18
I117
I3
tp2368
I4
s(I29
I111
I3
tp2369
I9
s(I36
I102
I2
tp2370
I295
s(I48
I103
I6
tp2371
I1
s(I63
I28
I3
tp2372
I5
s(I34
I114
I5
tp2373
I183
s(I51
I16
I2
tp2374
I7
s(I57
I7
I3
tp2375
I9
s(I41
I124
I0
tp2376
I1395
s(I63
I110
I9
tp2377
I2
s(I47
I104
I8
tp2378
I5
s(I18
I127
I2
tp2379
I1
s(I39
I86
I0
tp2380
I24
s(I54
I96
I6
tp2381
I2
s(I19
I120
I8
tp2382
I7
s(I33
I20
I8
tp2383
I3
s(I61
I103
I3
tp2384
I2
s(I48
I6
I6
tp2385
I4
s(I38
I93
I3
tp2386
I5
s(I56
I10
I3
tp2387
I488
s(I59
I16
I0
tp2388
I1
s(I2
I27
I0
tp2389
I1
s(I48
I14
I2
tp2390
I8
s(I35
I105
I6
tp2391
I1240
s(I38
I122
I9
tp2392
I1685
s(I3
I127
I0
tp2393
I136
s(I37
I6
I2
tp2394
I3
s(I18
I125
I3
tp2395
I6
s(I28
I100
I0
tp2396
I288
s(I18
I88
I6
tp2397
I1
s(I52
I13
I0
tp2398
I11
s(I8
I111
I5
tp2399
I4
s(I20
I88
I9
tp2400
I1
s(I44
I100
I5
tp2401
I1
s(I60
I25
I3
tp2402
I54
s(I3
I0
I3
tp2403
I2
s(I30
I19
I2
tp2404
I1
s(I42
I39
I9
tp2405
I2
s(I20
I123
I0
tp2406
I1256
s(I10
I82
I0
tp2407
I6
s(I57
I123
I6
tp2408
I1
s(I19
I99
I9
tp2409
I1
s(I47
I106
I3
tp2410
I1
s(I33
I3
I9
tp2411
I2
s(I64
I125
I8
tp2412
I1
s(I45
I6
I0
tp2413
I7
s(I10
I113
I9
tp2414
I1914
s(I19
I122
I3
tp2415
I5
s(I53
I2
I3
tp2416
I364
s(I12
I106
I0
tp2417
I1
s(I46
I16
I0
tp2418
I26
s(I46
I105
I2
tp2419
I3
s(I41
I126
I2
tp2420
I2
s(I9
I18
I9
tp2421
I1
s(I9
I112
I8
tp2422
I1
s(I36
I116
I8
tp2423
I3
s(I38
I19
I0
tp2424
I2
s(I37
I4
I9
tp2425
I6
s(I48
I27
I8
tp2426
I3
s(I32
I111
I9
tp2427
I15
s(I54
I11
I6
tp2428
I7
s(I16
I119
I5
tp2429
I3
s(I6
I124
I2
tp2430
I5
s(I34
I19
I2
tp2431
I4
s(I34
I120
I0
tp2432
I27
s(I26
I114
I8
tp2433
I1858
s(I7
I5
I0
tp2434
I19
s(I59
I121
I0
tp2435
I76
s(I15
I1
I5
tp2436
I1
s(I30
I17
I9
tp2437
I1
s(I55
I126
I2
tp2438
I301
s(I17
I116
I9
tp2439
I11
s(I29
I101
I5
tp2440
I251
s(I16
I10
I0
tp2441
I49
s(I3
I125
I6
tp2442
I4
s(I27
I4
I2
tp2443
I7
s(I5
I108
I9
tp2444
I6
s(I54
I110
I5
tp2445
I4
s(I41
I31
I0
tp2446
I8
s(I43
I124
I8
tp2447
I4
s(I8
I121
I0
tp2448
I1
s(I48
I0
I5
tp2449
I8
s(I10
I20
I8
tp2450
I1
s(I37
I101
I9
tp2451
I968
s(I33
I104
I0
tp2452
I93
s(I48
I122
I6
tp2453
I8
s(I14
I124
I9
tp2454
I1
s(I51
I107
I5
tp2455
I2
s(I16
I22
I5
tp2456
I1
s(I3
I121
I3
tp2457
I1
s(I9
I8
I8
tp2458
I1
s(I21
I104
I0
tp2459
I33
s(I51
I97
I3
tp2460
I1
s(I14
I123
I3
tp2461
I2
s(I35
I4
I0
tp2462
I11
s(I53
I4
I5
tp2463
I4
s(I18
I94
I5
tp2464
I2
s(I11
I84
I8
tp2465
I1
s(I45
I111
I6
tp2466
I7
s(I64
I15
I5
tp2467
I44
s(I59
I6
I8
tp2468
I1026
s(I62
I12
I9
tp2469
I3
s(I2
I5
I8
tp2470
I11
s(I38
I122
I0
tp2471
I1194
s(I28
I9
I0
tp2472
I2
s(I28
I82
I6
tp2473
I2
s(I52
I34
I0
tp2474
I2
s(I36
I5
I3
tp2475
I1
s(I42
I125
I0
tp2476
I1418
s(I17
I81
I8
tp2477
I43
s(I10
I119
I6
tp2478
I2
s(I25
I117
I5
tp2479
I5
s(I43
I4
I6
tp2480
I2
s(I30
I101
I0
tp2481
I14
s(I20
I88
I0
tp2482
I397
s(I35
I101
I2
tp2483
I10
s(I64
I99
I0
tp2484
I44
s(I39
I94
I3
tp2485
I10
s(I39
I1
I3
tp2486
I9
s(I32
I0
I8
tp2487
I7
s(I32
I105
I6
tp2488
I2
s(I7
I79
I5
tp2489
I35
s(I47
I13
I0
tp2490
I355
s(I12
I112
I8
tp2491
I103
s(I39
I123
I8
tp2492
I1
s(I14
I39
I0
tp2493
I1
s(I57
I1
I8
tp2494
I5
s(I32
I41
I0
tp2495
I1
s(I50
I20
I0
tp2496
I778
s(I56
I2
I0
tp2497
I178
s(I62
I85
I0
tp2498
I4
s(I43
I101
I6
tp2499
I2
s(I33
I106
I2
tp2500
I1
s(I39
I98
I0
tp2501
I5
s(I45
I84
I9
tp2502
I2
s(I57
I24
I0
tp2503
I200
s(I34
I93
I0
tp2504
I5
s(I1
I123
I0
tp2505
I8
s(I29
I114
I8
tp2506
I8
s(I38
I97
I3
tp2507
I3
s(I39
I127
I5
tp2508
I10
s(I26
I108
I0
tp2509
I6
s(I60
I1
I2
tp2510
I1
s(I3
I24
I2
tp2511
I2
s(I43
I97
I3
tp2512
I1
s(I17
I19
I0
tp2513
I4
s(I61
I112
I0
tp2514
I7
s(I20
I115
I3
tp2515
I6
s(I52
I32
I6
tp2516
I1
s(I42
I20
I0
tp2517
I192
s(I32
I8
I2
tp2518
I1
s(I25
I119
I3
tp2519
I8
s(I61
I109
I5
tp2520
I2
s(I42
I13
I8
tp2521
I3
s(I45
I117
I9
tp2522
I575
s(I10
I110
I0
tp2523
I24
s(I33
I104
I9
tp2524
I488
s(I11
I8
I0
tp2525
I1
s(I29
I105
I9
tp2526
I5
s(I28
I84
I5
tp2527
I6
s(I24
I83
I5
tp2528
I26
s(I27
I0
I6
tp2529
I2
s(I29
I112
I3
tp2530
I2
s(I29
I23
I3
tp2531
I3
s(I38
I0
I9
tp2532
I3
s(I19
I110
I9
tp2533
I11
s(I5
I13
I2
tp2534
I1
s(I61
I10
I0
tp2535
I34
s(I28
I119
I2
tp2536
I1
s(I62
I12
I0
tp2537
I337
s(I61
I17
I8
tp2538
I9
s(I23
I108
I3
tp2539
I1
s(I57
I113
I0
tp2540
I55
s(I44
I125
I8
tp2541
I4
s(I44
I102
I0
tp2542
I1
s(I30
I127
I8
tp2543
I2
s(I14
I93
I5
tp2544
I33
s(I39
I24
I3
tp2545
I1
s(I16
I94
I0
tp2546
I1
s(I24
I114
I5
tp2547
I2
s(I2
I96
I6
tp2548
I1
s(I64
I0
I0
tp2549
I190
s(I61
I114
I2
tp2550
I1
s(I23
I9
I0
tp2551
I164
s(I57
I109
I5
tp2552
I5
s(I27
I97
I2
tp2553
I209
s(I8
I13
I0
tp2554
I1
s(I56
I95
I0
tp2555
I33
s(I43
I0
I2
tp2556
I6
s(I15
I113
I2
tp2557
I3
s(I61
I109
I8
tp2558
I2
s(I24
I110
I6
tp2559
I288
s(I45
I12
I8
tp2560
I1
s(I11
I113
I0
tp2561
I1830
s(I1
I6
I0
tp2562
I2
s(I3
I119
I8
tp2563
I533
s(I34
I93
I9
tp2564
I254
s(I3
I13
I9
tp2565
I126
s(I33
I113
I5
tp2566
I14
s(I36
I118
I0
tp2567
I13
s(I60
I102
I2
tp2568
I55
s(I16
I125
I6
tp2569
I7
s(I3
I110
I0
tp2570
I52
s(I30
I125
I3
tp2571
I4
s(I48
I10
I3
tp2572
I2
s(I51
I0
I0
tp2573
I89
s(I32
I126
I2
tp2574
I11
s(I59
I4
I3
tp2575
I6
s(I62
I14
I6
tp2576
I2
s(I52
I30
I0
tp2577
I193
s(I35
I125
I3
tp2578
I4
s(I3
I115
I5
tp2579
I4546
s(I53
I116
I0
tp2580
I669
s(I12
I87
I3
tp2581
I2
s(I59
I118
I9
tp2582
I540
s(I30
I0
I2
tp2583
I3
s(I23
I117
I3
tp2584
I1825
s(I44
I13
I0
tp2585
I7
s(I35
I94
I0
tp2586
I37
s(I25
I78
I6
tp2587
I23
s(I2
I11
I6
tp2588
I7
s(I64
I87
I0
tp2589
I2
s(I39
I106
I3
tp2590
I4
s(I23
I15
I2
tp2591
I1
s(I23
I86
I0
tp2592
I47
s(I0
I126
I3
tp2593
I14
s(I18
I2
I2
tp2594
I1
s(I36
I112
I9
tp2595
I242
s(I17
I95
I2
tp2596
I1
s(I14
I27
I0
tp2597
I1
s(I38
I0
I0
tp2598
I882
s(I38
I105
I2
tp2599
I1
s(I62
I105
I0
tp2600
I277
s(I55
I5
I3
tp2601
I6
s(I42
I104
I6
tp2602
I4
s(I45
I121
I5
tp2603
I7
s(I63
I1
I0
tp2604
I535
s(I52
I125
I8
tp2605
I2
s(I14
I97
I5
tp2606
I18
s(I61
I120
I3
tp2607
I64
s(I26
I3
I2
tp2608
I2
s(I16
I123
I0
tp2609
I1888
s(I38
I12
I5
tp2610
I1
s(I38
I117
I9
tp2611
I2
s(I12
I122
I6
tp2612
I7
s(I52
I123
I5
tp2613
I2
s(I64
I118
I6
tp2614
I2
s(I54
I4
I3
tp2615
I5
s(I41
I14
I0
tp2616
I13
s(I16
I100
I8
tp2617
I38
s(I42
I115
I2
tp2618
I1
s(I59
I2
I5
tp2619
I6
s(I43
I111
I8
tp2620
I3
s(I8
I106
I0
tp2621
I30
s(I20
I111
I9
tp2622
I9
s(I9
I0
I0
tp2623
I1040
s(I9
I127
I2
tp2624
I7
s(I43
I86
I0
tp2625
I53
s(I33
I127
I0
tp2626
I15
s(I32
I126
I3
tp2627
I3
s(I55
I16
I3
tp2628
I1
s(I29
I120
I2
tp2629
I1
s(I25
I113
I8
tp2630
I58
s(I34
I3
I0
tp2631
I25
s(I34
I104
I6
tp2632
I2
s(I15
I113
I9
tp2633
I3
s(I46
I99
I8
tp2634
I1
s(I42
I15
I3
tp2635
I6
s(I30
I98
I0
tp2636
I255
s(I60
I11
I8
tp2637
I1
s(I50
I20
I5
tp2638
I4
s(I6
I117
I8
tp2639
I77
s(I43
I107
I5
tp2640
I1
s(I3
I113
I2
tp2641
I8
s(I52
I127
I3
tp2642
I6
s(I0
I124
I5
tp2643
I8
s(I3
I13
I0
tp2644
I6
s(I27
I109
I6
tp2645
I1
s(I33
I123
I5
tp2646
I1
s(I45
I20
I5
tp2647
I2
s(I28
I26
I0
tp2648
I9
s(I42
I3
I6
tp2649
I3
s(I45
I123
I3
tp2650
I1
s(I47
I2
I9
tp2651
I1731
s(I63
I126
I0
tp2652
I553
s(I53
I23
I0
tp2653
I36
s(I30
I90
I0
tp2654
I216
s(I61
I19
I5
tp2655
I88
s(I53
I110
I8
tp2656
I1
s(I17
I101
I5
tp2657
I1
s(I16
I121
I2
tp2658
I2
s(I37
I82
I8
tp2659
I50
s(I12
I120
I0
tp2660
I1228
s(I15
I105
I3
tp2661
I2
s(I64
I116
I0
tp2662
I183
s(I42
I110
I5
tp2663
I3
s(I42
I126
I8
tp2664
I10
s(I10
I120
I3
tp2665
I9
s(I5
I103
I9
tp2666
I1
s(I47
I28
I0
tp2667
I2
s(I56
I112
I9
tp2668
I663
s(I30
I91
I8
tp2669
I5
s(I27
I85
I2
tp2670
I378
s(I9
I2
I2
tp2671
I2
s(I5
I122
I6
tp2672
I8
s(I48
I105
I8
tp2673
I3
s(I39
I13
I0
tp2674
I19
s(I60
I110
I3
tp2675
I12
s(I38
I10
I8
tp2676
I3
s(I3
I102
I3
tp2677
I6
s(I12
I124
I5
tp2678
I3
s(I24
I9
I0
tp2679
I14
s(I30
I117
I2
tp2680
I14
s(I14
I91
I3
tp2681
I23
s(I64
I112
I5
tp2682
I42
s(I48
I18
I0
tp2683
I21
s(I54
I101
I0
tp2684
I251
s(I60
I119
I9
tp2685
I1147
s(I59
I12
I2
tp2686
I1
s(I34
I115
I8
tp2687
I1
s(I26
I125
I0
tp2688
I2741
s(I28
I88
I8
tp2689
I1
s(I53
I108
I3
tp2690
I11
s(I12
I95
I2
tp2691
I446
s(I30
I24
I3
tp2692
I2
s(I17
I2
I0
tp2693
I20
s(I16
I123
I9
tp2694
I3
s(I32
I120
I8
tp2695
I1
s(I47
I125
I2
tp2696
I2
s(I43
I10
I8
tp2697
I9
s(I18
I108
I0
tp2698
I2
s(I42
I108
I2
tp2699
I2
s(I12
I99
I3
tp2700
I17
s(I43
I117
I0
tp2701
I16
s(I17
I120
I5
tp2702
I11
s(I39
I114
I2
tp2703
I3
s(I10
I31
I0
tp2704
I1
s(I1
I7
I0
tp2705
I1
s(I9
I0
I9
tp2706
I2
s(I33
I97
I8
tp2707
I4
s(I45
I26
I2
tp2708
I3
s(I23
I123
I8
tp2709
I9
s(I60
I104
I8
tp2710
I208
s(I41
I92
I9
tp2711
I528
s(I3
I104
I6
tp2712
I60
s(I34
I104
I9
tp2713
I1
s(I12
I126
I2
tp2714
I9
s(I46
I85
I0
tp2715
I6
s(I5
I95
I3
tp2716
I1
s(I64
I114
I2
tp2717
I405
s(I25
I103
I6
tp2718
I27
s(I10
I122
I5
tp2719
I2
s(I50
I92
I0
tp2720
I1
s(I34
I113
I3
tp2721
I3
s(I39
I118
I9
tp2722
I2
s(I70
I2
I6
tp2723
I204
s(I56
I17
I2
tp2724
I1
s(I10
I110
I8
tp2725
I4
s(I5
I124
I0
tp2726
I119
s(I27
I126
I9
tp2727
I140
s(I29
I3
I0
tp2728
I71
s(I50
I96
I3
tp2729
I1
s(I34
I108
I2
tp2730
I1
s(I55
I11
I8
tp2731
I6
s(I32
I100
I5
tp2732
I1
s(I54
I12
I0
tp2733
I78
s(I44
I87
I0
tp2734
I53
s(I62
I0
I5
tp2735
I1
s(I42
I10
I6
tp2736
I2
s(I27
I95
I5
tp2737
I3
s(I55
I18
I0
tp2738
I2
s(I61
I100
I9
tp2739
I2
s(I0
I1
I5
tp2740
I2
s(I9
I119
I3
tp2741
I8
s(I20
I2
I3
tp2742
I4
s(I23
I24
I0
tp2743
I4
s(I25
I0
I5
tp2744
I3
s(I47
I115
I0
tp2745
I581
s(I37
I3
I2
tp2746
I5
s(I42
I7
I2
tp2747
I10
s(I39
I87
I9
tp2748
I1840
s(I56
I112
I0
tp2749
I55
s(I9
I84
I0
tp2750
I1
s(I2
I108
I3
tp2751
I1
s(I61
I23
I9
tp2752
I1
s(I70
I0
I3
tp2753
I3020
s(I57
I10
I0
tp2754
I1
s(I2
I117
I9
tp2755
I56
s(I33
I99
I6
tp2756
I1
s(I48
I127
I0
tp2757
I217
s(I35
I16
I2
tp2758
I3
s(I36
I103
I0
tp2759
I20
s(I48
I24
I8
tp2760
I2
s(I16
I110
I6
tp2761
I1941
s(I63
I118
I3
tp2762
I27
s(I50
I7
I0
tp2763
I1456
s(I6
I119
I3
tp2764
I34
s(I24
I98
I3
tp2765
I3
s(I52
I107
I9
tp2766
I657
s(I41
I99
I2
tp2767
I5
s(I37
I119
I6
tp2768
I9
s(I5
I126
I2
tp2769
I331
s(I11
I5
I3
tp2770
I1
s(I8
I115
I8
tp2771
I1
s(I19
I9
I0
tp2772
I71
s(I46
I124
I3
tp2773
I1
s(I43
I16
I0
tp2774
I8
s(I24
I94
I2
tp2775
I1
s(I30
I113
I6
tp2776
I1297
s(I45
I125
I8
tp2777
I5
s(I10
I112
I0
tp2778
I15
s(I60
I123
I5
tp2779
I2
s(I59
I8
I6
tp2780
I351
s(I2
I106
I8
tp2781
I161
s(I48
I94
I6
tp2782
I1
s(I45
I100
I0
tp2783
I55
s(I35
I113
I0
tp2784
I4
s(I20
I0
I5
tp2785
I8
s(I23
I97
I0
tp2786
I1
s(I35
I104
I8
tp2787
I2
s(I47
I113
I6
tp2788
I6
s(I46
I85
I9
tp2789
I28
s(I27
I126
I0
tp2790
I2876
s(I32
I5
I2
tp2791
I2
s(I32
I110
I0
tp2792
I226
s(I44
I2
I5
tp2793
I3
s(I24
I100
I8
tp2794
I2
s(I39
I118
I6
tp2795
I2
s(I51
I21
I9
tp2796
I3
s(I26
I117
I3
tp2797
I2
s(I30
I16
I0
tp2798
I34
s(I57
I122
I8
tp2799
I1095
s(I3
I122
I9
tp2800
I8
s(I42
I100
I3
tp2801
I2
s(I19
I125
I3
tp2802
I3
s(I6
I113
I5
tp2803
I3
s(I12
I107
I2
tp2804
I554
s(I30
I108
I3
tp2805
I54
s(I42
I93
I9
tp2806
I529
s(I35
I115
I9
tp2807
I1313
s(I47
I86
I0
tp2808
I31
s(I35
I106
I3
tp2809
I1
s(I7
I107
I5
tp2810
I55
s(I19
I94
I0
tp2811
I72
s(I37
I3
I9
tp2812
I1
s(I33
I14
I0
tp2813
I7
s(I14
I81
I9
tp2814
I1
s(I39
I87
I0
tp2815
I213
s(I41
I2
I3
tp2816
I2
s(I16
I104
I5
tp2817
I2
s(I9
I84
I9
tp2818
I2
s(I6
I125
I0
tp2819
I958
s(I34
I16
I0
tp2820
I51
s(I43
I121
I6
tp2821
I6
s(I46
I13
I9
tp2822
I5
s(I11
I79
I0
tp2823
I38
s(I61
I104
I5
tp2824
I8
s(I48
I5
I6
tp2825
I5
s(I57
I97
I9
tp2826
I2
s(I60
I2
I9
tp2827
I2064
s(I26
I93
I9
tp2828
I1659
s(I57
I120
I3
tp2829
I227
s(I54
I122
I8
tp2830
I2
s(I50
I104
I0
tp2831
I2
s(I34
I84
I3
tp2832
I50
s(I42
I98
I8
tp2833
I55
s(I5
I107
I9
tp2834
I2
s(I39
I91
I5
tp2835
I5
s(I39
I2
I9
tp2836
I12
s(I50
I17
I8
tp2837
I6
s(I20
I97
I8
tp2838
I3
s(I63
I105
I0
tp2839
I22
s(I2
I121
I5
tp2840
I2
s(I33
I111
I2
tp2841
I597
s(I14
I112
I9
tp2842
I104
s(I20
I122
I0
tp2843
I711
s(I57
I116
I6
tp2844
I5
s(I44
I122
I2
tp2845
I7
s(I53
I125
I8
tp2846
I259
s(I21
I16
I0
tp2847
I22
s(I21
I119
I2
tp2848
I709
s(I64
I124
I8
tp2849
I1
s(I55
I94
I0
tp2850
I33
s(I45
I7
I0
tp2851
I2384
s(I30
I110
I5
tp2852
I9
s(I41
I127
I6
tp2853
I5
s(I63
I10
I5
tp2854
I2
s(I9
I113
I8
tp2855
I1914
s(I59
I122
I5
tp2856
I455
s(I37
I120
I0
tp2857
I671
s(I24
I119
I5
tp2858
I44
s(I14
I108
I2
tp2859
I2
s(I39
I99
I9
tp2860
I488
s(I9
I104
I0
tp2861
I534
s(I15
I101
I0
tp2862
I2
s(I2
I88
I3
tp2863
I1
s(I27
I100
I8
tp2864
I3
s(I36
I6
I3
tp2865
I3
s(I36
I127
I3
tp2866
I7
s(I32
I84
I8
tp2867
I240
s(I33
I4
I8
tp2868
I5
s(I34
I18
I6
tp2869
I1
s(I24
I26
I0
tp2870
I3
s(I48
I3
I0
tp2871
I1402
s(I41
I123
I3
tp2872
I6
s(I63
I14
I8
tp2873
I45
s(I62
I94
I5
tp2874
I56
s(I8
I21
I5
tp2875
I1
s(I16
I9
I0
tp2876
I3
s(I46
I32
I0
tp2877
I7
s(I33
I116
I5
tp2878
I5
s(I56
I106
I6
tp2879
I5
s(I18
I93
I0
tp2880
I54
s(I45
I108
I3
tp2881
I3
s(I9
I18
I0
tp2882
I66
s(I11
I9
I9
tp2883
I1
s(I10
I12
I0
tp2884
I7
s(I44
I33
I2
tp2885
I3
s(I21
I100
I3
tp2886
I24
s(I53
I127
I6
tp2887
I8
s(I2
I86
I8
tp2888
I44
s(I27
I102
I3
tp2889
I6
s(I27
I1
I3
tp2890
I2
s(I36
I0
I8
tp2891
I6
s(I33
I112
I8
tp2892
I12
s(I35
I5
I0
tp2893
I879
s(I63
I17
I9
tp2894
I1
s(I6
I125
I9
tp2895
I3
s(I46
I106
I0
tp2896
I57
s(I60
I2
I0
tp2897
I387
s(I5
I116
I8
tp2898
I4
s(I33
I85
I5
tp2899
I5
s(I17
I107
I0
tp2900
I3
s(I50
I114
I8
tp2901
I4
s(I5
I107
I0
tp2902
I164
s(I42
I124
I0
tp2903
I23
s(I35
I1
I5
tp2904
I3
s(I20
I95
I0
tp2905
I46
s(I54
I116
I2
tp2906
I213
s(I59
I109
I6
tp2907
I5
s(I54
I93
I9
tp2908
I1
s(I55
I125
I0
tp2909
I31
s(I45
I42
I0
tp2910
I2
s(I27
I117
I0
tp2911
I30
s(I32
I15
I8
tp2912
I1
s(I45
I17
I8
tp2913
I1
s(I41
I26
I2
tp2914
I1
s(I47
I2
I0
tp2915
I1201
s(I8
I118
I2
tp2916
I11
s(I39
I120
I8
tp2917
I7
s(I61
I9
I6
tp2918
I1
s(I43
I110
I9
tp2919
I1531
s(I62
I104
I0
tp2920
I1
s(I39
I99
I0
tp2921
I73
s(I23
I4
I3
tp2922
I2
s(I1
I7
I9
tp2923
I17
s(I35
I126
I9
tp2924
I12
s(I28
I10
I9
tp2925
I1
s(I34
I92
I0
tp2926
I1
s(I21
I107
I6
tp2927
I2
s(I30
I7
I6
tp2928
I4
s(I48
I96
I0
tp2929
I249
s(I23
I118
I9
tp2930
I13
s(I25
I19
I0
tp2931
I24
s(I56
I100
I5
tp2932
I1
s(I30
I85
I6
tp2933
I240
s(I3
I111
I9
tp2934
I1808
s(I30
I106
I9
tp2935
I12
s(I51
I1
I9
tp2936
I1373
s(I43
I110
I5
tp2937
I428
s(I33
I87
I3
tp2938
I1428
s(I51
I98
I0
tp2939
I249
s(I28
I87
I0
tp2940
I215
s(I21
I121
I5
tp2941
I17
s(I21
I111
I3
tp2942
I44
s(I42
I23
I0
tp2943
I2
s(I16
I114
I3
tp2944
I13
s(I19
I24
I0
tp2945
I1
s(I14
I99
I3
tp2946
I29
s(I6
I123
I6
tp2947
I18
s(I18
I93
I9
tp2948
I514
s(I18
I103
I8
tp2949
I2
s(I55
I6
I9
tp2950
I1389
s(I32
I115
I5
tp2951
I457
s(I10
I97
I0
tp2952
I364
s(I35
I95
I9
tp2953
I223
s(I63
I101
I6
tp2954
I53
s(I59
I27
I6
tp2955
I2
s(I37
I112
I3
tp2956
I6
s(I2
I123
I8
tp2957
I8
s(I11
I9
I0
tp2958
I30
s(I14
I100
I3
tp2959
I638
s(I36
I30
I0
tp2960
I8
s(I60
I103
I0
tp2961
I1
s(I47
I0
I2
tp2962
I4
s(I61
I11
I0
tp2963
I247
s(I1
I1
I2
tp2964
I4
s(I32
I127
I0
tp2965
I1914
s(I62
I15
I0
tp2966
I3
s(I2
I4
I3
tp2967
I2
s(I5
I14
I0
tp2968
I66
s(I64
I3
I5
tp2969
I48
s(I53
I115
I2
tp2970
I10
s(I18
I124
I9
tp2971
I1
s(I30
I1
I0
tp2972
I855
s(I36
I18
I5
tp2973
I1
s(I42
I118
I8
tp2974
I6
s(I7
I86
I0
tp2975
I45
s(I18
I101
I3
tp2976
I4
s(I55
I0
I0
tp2977
I185
s(I61
I15
I5
tp2978
I88
s(I41
I117
I8
tp2979
I9
s(I63
I12
I3
tp2980
I3
s(I15
I85
I5
tp2981
I1
s(I11
I114
I5
tp2982
I3
s(I61
I115
I6
tp2983
I197
s(I70
I127
I6
tp2984
I1
s(I41
I108
I0
tp2985
I589
s(I18
I0
I2
tp2986
I9
s(I41
I0
I8
tp2987
I2
s(I32
I94
I6
tp2988
I1
s(I19
I113
I0
tp2989
I41
s(I47
I120
I8
tp2990
I7
s(I54
I112
I6
tp2991
I2
s(I63
I0
I6
tp2992
I5
s(I24
I109
I6
tp2993
I95
s(I11
I126
I0
tp2994
I338
s(I29
I108
I9
tp2995
I1
s(I3
I116
I8
tp2996
I1717
s(I56
I26
I3
tp2997
I1
s(I59
I32
I0
tp2998
I6
s(I26
I0
I0
tp2999
I2201
s(I50
I27
I2
tp3000
I1
s(I38
I106
I9
tp3001
I2104
s(I3
I111
I0
tp3002
I8
s(I8
I114
I6
tp3003
I3259
s(I61
I13
I2
tp3004
I1
s(I61
I84
I0
tp3005
I1
s(I51
I1
I0
tp3006
I2261
s(I32
I125
I2
tp3007
I3
s(I41
I13
I6
tp3008
I3
s(I63
I127
I9
tp3009
I2223
s(I28
I116
I0
tp3010
I1867
s(I59
I5
I5
tp3011
I3
s(I52
I29
I0
tp3012
I24
s(I51
I98
I9
tp3013
I1892
s(I20
I104
I9
tp3014
I1
s(I47
I99
I9
tp3015
I536
s(I27
I106
I3
tp3016
I7
s(I30
I3
I2
tp3017
I5
s(I23
I122
I5
tp3018
I12
s(I19
I115
I9
tp3019
I5
s(I47
I122
I3
tp3020
I7
s(I34
I0
I6
tp3021
I4
s(I46
I96
I6
tp3022
I3
s(I10
I97
I9
tp3023
I1
s(I12
I26
I0
tp3024
I1
s(I2
I101
I0
tp3025
I3
s(I54
I126
I5
tp3026
I5
s(I46
I121
I2
tp3027
I3
s(I64
I13
I2
tp3028
I372
s(I70
I121
I0
tp3029
I14
s(I50
I120
I6
tp3030
I4
s(I53
I105
I5
tp3031
I9
s(I37
I23
I0
tp3032
I55
s(I38
I3
I0
tp3033
I1
s(I37
I87
I6
tp3034
I7
s(I46
I7
I3
tp3035
I2
s(I27
I119
I8
tp3036
I9
s(I55
I10
I5
tp3037
I742
s(I26
I1
I8
tp3038
I2
s(I32
I127
I9
tp3039
I2
s(I29
I88
I0
tp3040
I216
s(I63
I121
I2
tp3041
I1
s(I34
I35
I2
tp3042
I1
s(I24
I107
I0
tp3043
I719
s(I46
I28
I5
tp3044
I3
s(I11
I124
I2
tp3045
I1
s(I20
I106
I6
tp3046
I1
s(I7
I117
I0
tp3047
I339
s(I28
I95
I3
tp3048
I209
s(I21
I0
I2
tp3049
I6
s(I30
I1
I9
tp3050
I1
s(I17
I100
I9
tp3051
I39
s(I29
I117
I5
tp3052
I11
s(I41
I16
I8
tp3053
I3
s(I16
I122
I0
tp3054
I283
s(I44
I14
I9
tp3055
I3
s(I47
I4
I6
tp3056
I6
s(I3
I109
I6
tp3057
I24
s(I27
I20
I2
tp3058
I1
s(I5
I92
I9
tp3059
I1
s(I51
I86
I0
tp3060
I32
s(I10
I121
I3
tp3061
I13
s(I41
I15
I0
tp3062
I452
s(I28
I122
I2
tp3063
I2
s(I43
I108
I8
tp3064
I2
s(I0
I127
I8
tp3065
I1
s(I60
I14
I0
tp3066
I221
s(I33
I120
I0
tp3067
I896
s(I20
I9
I2
tp3068
I1
s(I51
I123
I5
tp3069
I4
s(I16
I6
I5
tp3070
I1
s(I34
I2
I0
tp3071
I1
s(I21
I120
I0
tp3072
I428
s(I11
I93
I0
tp3073
I10
s(I14
I88
I3
tp3074
I361
s(I41
I11
I5
tp3075
I9
s(I2
I12
I0
tp3076
I1
s(I45
I95
I6
tp3077
I5
s(I53
I107
I3
tp3078
I2
s(I59
I22
I8
tp3079
I1
s(I21
I101
I5
tp3080
I2
s(I32
I90
I2
tp3081
I1428
s(I38
I106
I0
tp3082
I11
s(I46
I1
I5
tp3083
I11
s(I42
I109
I0
tp3084
I589
s(I43
I116
I6
tp3085
I2
s(I30
I85
I0
tp3086
I29
s(I15
I20
I0
tp3087
I1
s(I20
I104
I0
tp3088
I633
s(I50
I126
I5
tp3089
I2
s(I39
I14
I5
tp3090
I3
s(I12
I127
I0
tp3091
I125
s(I18
I113
I9
tp3092
I4280
s(I64
I115
I0
tp3093
I42
s(I32
I121
I6
tp3094
I3
s(I60
I114
I6
tp3095
I224
s(I63
I115
I5
tp3096
I2
s(I47
I29
I0
tp3097
I5
s(I59
I1
I9
tp3098
I2058
s(I17
I123
I2
tp3099
I13
s(I70
I121
I9
tp3100
I563
s(I20
I108
I5
tp3101
I2
s(I56
I18
I0
tp3102
I384
s(I33
I122
I2
tp3103
I1
s(I8
I0
I6
tp3104
I2
s(I17
I92
I9
tp3105
I34
s(I39
I18
I0
tp3106
I8
s(I29
I2
I6
tp3107
I1
s(I34
I109
I0
tp3108
I369
s(I62
I98
I8
tp3109
I1
s(I30
I116
I6
tp3110
I2
s(I61
I92
I3
tp3111
I54
s(I29
I88
I9
tp3112
I1
s(I63
I6
I9
tp3113
I2142
s(I34
I114
I8
tp3114
I457
s(I14
I11
I3
tp3115
I1
s(I64
I9
I6
tp3116
I3
s(I55
I109
I2
tp3117
I213
s(I39
I111
I5
tp3118
I6
s(I26
I124
I0
tp3119
I17
s(I60
I17
I2
tp3120
I1
s(I0
I2
I5
tp3121
I60
s(I50
I124
I2
tp3122
I4
s(I17
I3
I0
tp3123
I260
s(I45
I23
I9
tp3124
I1
s(I51
I117
I0
tp3125
I16
s(I38
I116
I2
tp3126
I3
s(I25
I7
I5
tp3127
I2
s(I47
I114
I2
tp3128
I2
s(I42
I4
I0
tp3129
I2377
s(I53
I10
I2
tp3130
I1
s(I43
I114
I0
tp3131
I1693
s(I2
I109
I3
tp3132
I5
s(I61
I125
I5
tp3133
I4
s(I20
I110
I2
tp3134
I231
s(I45
I101
I9
tp3135
I643
s(I7
I21
I0
tp3136
I1
s(I15
I114
I5
tp3137
I4280
s(I33
I120
I9
tp3138
I1
s(I29
I121
I9
tp3139
I4
s(I63
I94
I5
tp3140
I1
s(I25
I100
I0
tp3141
I549
s(I28
I3
I5
tp3142
I1
s(I2
I81
I0
tp3143
I1
s(I33
I126
I6
tp3144
I5
s(I63
I113
I3
tp3145
I2
s(I28
I126
I6
tp3146
I9
s(I6
I116
I3
tp3147
I3551
s(I37
I35
I0
tp3148
I3
s(I61
I26
I0
tp3149
I9
s(I52
I87
I0
tp3150
I32
s(I39
I16
I2
tp3151
I2
s(I29
I4
I0
tp3152
I484
s(I44
I109
I8
tp3153
I3
s(I39
I11
I8
tp3154
I3
s(I28
I7
I8
tp3155
I1
s(I24
I95
I0
tp3156
I560
s(I30
I118
I0
tp3157
I1258
s(I54
I15
I0
tp3158
I143
s(I60
I116
I5
tp3159
I197
s(I44
I86
I0
tp3160
I1
s(I30
I111
I8
tp3161
I8
s(I45
I99
I2
tp3162
I1
s(I12
I92
I0
tp3163
I49
s(I2
I112
I6
tp3164
I5
s(I35
I21
I9
tp3165
I2
s(I57
I125
I5
tp3166
I7
s(I27
I113
I2
tp3167
I215
s(I55
I12
I3
tp3168
I2
s(I30
I114
I5
tp3169
I1510
s(I32
I6
I0
tp3170
I512
s(I47
I11
I8
tp3171
I5
s(I62
I31
I6
tp3172
I45
s(I57
I11
I0
tp3173
I32
s(I24
I126
I6
tp3174
I2
s(I11
I97
I0
tp3175
I67
s(I3
I103
I8
tp3176
I2
s(I34
I109
I9
tp3177
I236
s(I34
I14
I6
tp3178
I1
s(I6
I104
I0
tp3179
I9
s(I36
I13
I2
tp3180
I8
s(I36
I102
I0
tp3181
I3
s(I70
I126
I8
tp3182
I3
s(I60
I118
I2
tp3183
I64
s(I16
I109
I6
tp3184
I2515
s(I3
I94
I0
tp3185
I28
s(I53
I0
I3
tp3186
I4
s(I30
I109
I3
tp3187
I151
s(I61
I99
I0
tp3188
I24
s(I51
I16
I0
tp3189
I37
s(I35
I114
I5
tp3190
I295
s(I41
I1
I6
tp3191
I3
s(I59
I20
I3
tp3192
I7
s(I18
I16
I0
tp3193
I13
s(I29
I6
I2
tp3194
I4
s(I51
I107
I8
tp3195
I2
s(I35
I109
I3
tp3196
I2
s(I3
I99
I5
tp3197
I2
s(I43
I17
I0
tp3198
I439
s(I8
I92
I8
tp3199
I1
s(I64
I123
I3
tp3200
I1
s(I45
I126
I8
tp3201
I7
s(I30
I5
I5
tp3202
I5
s(I28
I96
I5
tp3203
I4
s(I52
I9
I3
tp3204
I1
s(I61
I0
I5
tp3205
I92
s(I41
I120
I9
tp3206
I1336
s(I37
I121
I9
tp3207
I1681
s(I15
I90
I5
tp3208
I513
s(I48
I123
I0
tp3209
I50
s(I5
I115
I3
tp3210
I6
s(I48
I112
I9
tp3211
I996
s(I23
I102
I0
tp3212
I541
s(I25
I100
I9
tp3213
I2
s(I36
I96
I9
tp3214
I230
s(I45
I2
I3
tp3215
I3
s(I32
I4
I6
tp3216
I5
s(I32
I109
I0
tp3217
I1
s(I61
I26
I9
tp3218
I1
s(I61
I4
I8
tp3219
I2
s(I45
I105
I5
tp3220
I5
s(I33
I125
I8
tp3221
I6
s(I14
I113
I5
tp3222
I31
s(I29
I103
I6
tp3223
I7
s(I44
I123
I0
tp3224
I2255
s(I26
I19
I2
tp3225
I1
s(I41
I7
I8
tp3226
I11
s(I16
I107
I0
tp3227
I29
s(I44
I92
I8
tp3228
I1
s(I43
I122
I3
tp3229
I3
s(I7
I1
I5
tp3230
I2
s(I16
I84
I8
tp3231
I2
s(I47
I87
I0
tp3232
I220
s(I59
I18
I5
tp3233
I9
s(I37
I103
I2
tp3234
I55
s(I14
I109
I0
tp3235
I74
s(I14
I10
I2
tp3236
I1
s(I20
I127
I9
tp3237
I2
s(I19
I4
I2
tp3238
I5
s(I19
I95
I0
tp3239
I493
s(I43
I31
I2
tp3240
I2
s(I27
I113
I9
tp3241
I2
s(I33
I15
I0
tp3242
I54
s(I37
I116
I9
tp3243
I3
s(I6
I124
I0
tp3244
I307
s(I34
I19
I0
tp3245
I17
s(I34
I120
I6
tp3246
I5
s(I46
I115
I8
tp3247
I10
s(I48
I91
I0
tp3248
I1
s(I60
I27
I8
tp3249
I1
s(I25
I88
I0
tp3250
I49
s(I12
I9
I2
tp3251
I1
s(I33
I95
I6
tp3252
I1
s(I21
I87
I6
tp3253
I1
s(I8
I22
I5
tp3254
I23
s(I17
I9
I6
tp3255
I95
s(I36
I91
I0
tp3256
I29
s(I11
I119
I8
tp3257
I5
s(I38
I113
I9
tp3258
I295
s(I3
I125
I0
tp3259
I280
s(I50
I94
I8
tp3260
I1
s(I27
I125
I6
tp3261
I7
s(I27
I4
I0
tp3262
I7
s(I45
I4
I5
tp3263
I16
s(I35
I8
I3
tp3264
I6
s(I63
I119
I8
tp3265
I7
s(I53
I0
I8
tp3266
I1
s(I62
I27
I2
tp3267
I2
s(I63
I110
I0
tp3268
I400
s(I24
I122
I2
tp3269
I7
s(I38
I17
I5
tp3270
I3
s(I38
I126
I5
tp3271
I17
s(I53
I126
I8
tp3272
I1
s(I15
I102
I5
tp3273
I614
s(I21
I104
I2
tp3274
I2
s(I55
I95
I0
tp3275
I227
s(I35
I4
I6
tp3276
I6
s(I56
I103
I3
tp3277
I2
s(I12
I104
I0
tp3278
I32
s(I15
I121
I3
tp3279
I15
s(I47
I3
I8
tp3280
I16
s(I42
I94
I5
tp3281
I4
s(I9
I114
I8
tp3282
I2024
s(I56
I0
I9
tp3283
I2047
s(I37
I121
I0
tp3284
I1193
s(I33
I84
I9
tp3285
I253
s(I14
I4
I0
tp3286
I68
s(I19
I93
I6
tp3287
I2
s(I36
I9
I6
tp3288
I2
s(I5
I106
I6
tp3289
I6
s(I60
I126
I3
tp3290
I67
s(I63
I20
I0
tp3291
I292
s(I28
I100
I9
tp3292
I3
s(I24
I25
I0
tp3293
I1
s(I8
I123
I5
tp3294
I2
s(I30
I101
I2
tp3295
I7
s(I39
I125
I6
tp3296
I9
s(I16
I122
I6
tp3297
I12
s(I32
I118
I3
tp3298
I8
s(I41
I116
I5
tp3299
I10
s(I53
I101
I9
tp3300
I1900
s(I10
I82
I9
tp3301
I59
s(I44
I123
I9
tp3302
I4
s(I19
I89
I3
tp3303
I1
s(I53
I124
I3
tp3304
I69
s(I30
I8
I3
tp3305
I2
s(I64
I99
I2
tp3306
I302
s(I47
I13
I2
tp3307
I2
s(I52
I1
I2
tp3308
I5
s(I61
I111
I6
tp3309
I10
s(I9
I19
I0
tp3310
I1
s(I43
I101
I0
tp3311
I1
s(I17
I104
I5
tp3312
I27
s(I39
I98
I2
tp3313
I5
s(I10
I15
I0
tp3314
I1
s(I36
I7
I8
tp3315
I1
s(I33
I113
I8
tp3316
I1510
s(I17
I87
I3
tp3317
I1
s(I45
I10
I2
tp3318
I9
s(I60
I120
I8
tp3319
I304
s(I23
I113
I9
tp3320
I2
s(I25
I123
I0
tp3321
I177
s(I12
I110
I2
tp3322
I1816
s(I46
I12
I2
tp3323
I7
s(I46
I101
I0
tp3324
I3
s(I43
I82
I0
tp3325
I217
s(I60
I1
I0
tp3326
I22
s(I37
I123
I6
tp3327
I11
s(I5
I117
I8
tp3328
I20
s(I17
I116
I0
tp3329
I3240
s(I51
I101
I2
tp3330
I2
s(I19
I0
I6
tp3331
I1
s(I62
I116
I2
tp3332
I15
s(I21
I23
I3
tp3333
I1
s(I8
I86
I6
tp3334
I12
s(I5
I108
I0
tp3335
I828
s(I29
I19
I0
tp3336
I30
s(I34
I124
I2
tp3337
I7
s(I55
I1
I9
tp3338
I1
s(I32
I116
I5
tp3339
I1
s(I54
I28
I0
tp3340
I21
s(I27
I117
I3
tp3341
I4
s(I55
I98
I0
tp3342
I1
s(I33
I91
I3
tp3343
I264
s(I61
I116
I9
tp3344
I2171
s(I37
I92
I0
tp3345
I30
s(I52
I110
I6
tp3346
I1
s(I8
I117
I2
tp3347
I103
s(I61
I10
I6
tp3348
I159
s(I56
I0
I0
tp3349
I65
s(I47
I26
I8
tp3350
I2
s(I2
I124
I3
tp3351
I5
s(I11
I20
I9
tp3352
I1
s(I29
I109
I0
tp3353
I461
s(I44
I125
I6
tp3354
I1
s(I33
I115
I6
tp3355
I316
s(I48
I111
I0
tp3356
I51
s(I32
I10
I5
tp3357
I1
s(I51
I126
I5
tp3358
I259
s(I35
I0
I2
tp3359
I8
s(I18
I124
I3
tp3360
I2
s(I52
I98
I3
tp3361
I2
s(I48
I8
I8
tp3362
I1
s(I16
I94
I6
tp3363
I445
s(I63
I102
I3
tp3364
I7
s(I24
I114
I3
tp3365
I8
s(I52
I123
I9
tp3366
I590
s(I17
I118
I2
tp3367
I1
s(I29
I23
I0
tp3368
I16
s(I38
I115
I8
tp3369
I7
s(I28
I13
I2
tp3370
I4
s(I3
I113
I6
tp3371
I18
s(I5
I110
I2
tp3372
I2
s(I17
I4
I8
tp3373
I1
s(I19
I25
I0
tp3374
I6
s(I47
I13
I9
tp3375
I1
s(I43
I0
I0
tp3376
I12
s(I8
I119
I9
tp3377
I5
s(I30
I97
I6
tp3378
I377
s(I45
I109
I8
tp3379
I428
s(I51
I4
I3
tp3380
I2
s(I10
I96
I0
tp3381
I1
s(I60
I11
I5
tp3382
I159
s(I18
I28
I5
tp3383
I1
s(I2
I122
I8
tp3384
I8
s(I11
I113
I2
tp3385
I18
s(I45
I84
I0
tp3386
I221
s(I44
I119
I9
tp3387
I10
s(I23
I113
I0
tp3388
I361
s(I60
I102
I0
tp3389
I2
s(I37
I12
I5
tp3390
I3
s(I25
I109
I8
tp3391
I383
s(I62
I17
I8
tp3392
I1
s(I52
I5
I6
tp3393
I4
s(I46
I95
I8
tp3394
I5
s(I32
I126
I0
tp3395
I79
s(I56
I126
I2
tp3396
I359
s(I24
I116
I8
tp3397
I7
s(I15
I86
I0
tp3398
I63
s(I39
I102
I6
tp3399
I4
s(I1
I2
I9
tp3400
I1
s(I57
I115
I0
tp3401
I1
s(I63
I32
I0
tp3402
I66
s(I61
I121
I8
tp3403
I475
s(I28
I94
I6
tp3404
I3
s(I27
I99
I5
tp3405
I2
s(I30
I0
I0
tp3406
I57
s(I42
I20
I9
tp3407
I1
s(I45
I14
I6
tp3408
I10
s(I19
I114
I5
tp3409
I2
s(I47
I5
I3
tp3410
I13
s(I3
I106
I9
tp3411
I322
s(I52
I96
I5
tp3412
I1
s(I50
I23
I0
tp3413
I9
s(I55
I1
I0
tp3414
I1103
s(I42
I84
I3
tp3415
I29
s(I54
I3
I2
tp3416
I555
s(I26
I96
I2
tp3417
I5
s(I10
I110
I9
tp3418
I2025
s(I54
I6
I8
tp3419
I4
s(I8
I18
I8
tp3420
I1
s(I64
I14
I0
tp3421
I2342
s(I23
I15
I0
tp3422
I1
s(I35
I99
I9
tp3423
I393
s(I62
I112
I6
tp3424
I4
s(I18
I3
I2
tp3425
I8
s(I39
I92
I8
tp3426
I6
s(I39
I7
I6
tp3427
I2
s(I32
I93
I6
tp3428
I32
s(I7
I91
I5
tp3429
I46
s(I19
I110
I0
tp3430
I2622
s(I12
I118
I3
tp3431
I1
s(I46
I4
I3
tp3432
I2
s(I33
I30
I0
tp3433
I7
s(I16
I88
I5
tp3434
I2
s(I6
I109
I0
tp3435
I946
s(I9
I94
I8
tp3436
I36
s(I43
I105
I6
tp3437
I1
s(I61
I120
I5
tp3438
I14
s(I1
I0
I0
tp3439
I514
s(I57
I113
I9
tp3440
I665
s(I48
I116
I5
tp3441
I5
s(I26
I3
I0
tp3442
I15
s(I26
I88
I6
tp3443
I1
s(I44
I15
I5
tp3444
I9
s(I50
I24
I0
tp3445
I406
s(I34
I100
I3
tp3446
I70
s(I8
I113
I6
tp3447
I680
s(I42
I82
I8
tp3448
I2
s(I61
I14
I2
tp3449
I3
s(I36
I109
I8
tp3450
I1447
s(I35
I83
I5
tp3451
I50
s(I50
I1
I8
tp3452
I4
s(I5
I1
I2
tp3453
I17
s(I64
I0
I9
tp3454
I1
s(I20
I113
I8
tp3455
I20
s(I11
I28
I2
tp3456
I1
s(I33
I127
I2
tp3457
I8
s(I48
I84
I0
tp3458
I32
s(I20
I10
I0
tp3459
I48
s(I44
I106
I2
tp3460
I3
s(I34
I3
I6
tp3461
I1
s(I37
I84
I3
tp3462
I2
s(I37
I11
I3
tp3463
I7
s(I46
I10
I8
tp3464
I5
s(I43
I22
I8
tp3465
I1
s(I64
I114
I9
tp3466
I1
s(I10
I122
I8
tp3467
I2
s(I53
I19
I5
tp3468
I1
s(I37
I113
I8
tp3469
I295
s(I2
I100
I0
tp3470
I1
s(I30
I94
I5
tp3471
I33
s(I64
I12
I6
tp3472
I1
s(I70
I120
I0
tp3473
I2
s(I7
I118
I5
tp3474
I480
s(I41
I111
I6
tp3475
I5
s(I50
I123
I6
tp3476
I5
s(I9
I97
I8
tp3477
I1
s(I37
I104
I0
tp3478
I6
s(I43
I82
I9
tp3479
I2
s(I14
I124
I2
tp3480
I12
s(I48
I119
I3
tp3481
I2
s(I32
I91
I0
tp3482
I4
s(I60
I108
I8
tp3483
I5
s(I15
I117
I0
tp3484
I457
s(I27
I116
I8
tp3485
I5
s(I36
I111
I3
tp3486
I5
s(I32
I100
I8
tp3487
I251
s(I59
I111
I8
tp3488
I213
s(I37
I117
I5
tp3489
I3
s(I24
I106
I0
tp3490
I11
s(I11
I125
I6
tp3491
I1
s(I1
I2
I2
tp3492
I8
s(I7
I122
I0
tp3493
I4175
s(I41
I107
I3
tp3494
I1
s(I59
I118
I0
tp3495
I1
s(I16
I121
I0
tp3496
I1
s(I24
I13
I3
tp3497
I1
s(I9
I0
I8
tp3498
I2
s(I56
I122
I6
tp3499
I1095
s(I18
I77
I0
tp3500
I6
s(I45
I92
I3
tp3501
I3
s(I9
I2
I0
tp3502
I11
s(I21
I98
I8
tp3503
I4
s(I17
I6
I3
tp3504
I1
s(I39
I13
I2
tp3505
I2
s(I28
I0
I9
tp3506
I3
s(I44
I17
I2
tp3507
I2
s(I21
I121
I0
tp3508
I3603
s(I62
I2
I2
tp3509
I2
s(I33
I0
I8
tp3510
I9
s(I36
I14
I9
tp3511
I1
s(I26
I100
I6
tp3512
I4
s(I63
I1
I9
tp3513
I1
s(I59
I12
I0
tp3514
I32
s(I46
I122
I0
tp3515
I1655
s(I17
I124
I8
tp3516
I1
s(I60
I18
I0
tp3517
I5
s(I0
I122
I5
tp3518
I1199
s(I50
I125
I0
tp3519
I1970
s(I33
I101
I5
tp3520
I14
s(I17
I91
I0
tp3521
I2
s(I38
I117
I0
tp3522
I572
s(I50
I98
I8
tp3523
I8
s(I15
I107
I2
tp3524
I5
s(I5
I91
I0
tp3525
I10
s(I42
I108
I0
tp3526
I2
s(I60
I110
I6
tp3527
I307
s(I29
I91
I6
tp3528
I5
s(I60
I13
I3
tp3529
I46
s(I28
I123
I9
tp3530
I8
s(I28
I97
I8
tp3531
I3
s(I43
I117
I2
tp3532
I6
s(I20
I111
I0
tp3533
I2471
s(I70
I6
I3
tp3534
I4
s(I7
I120
I2
tp3535
I2
s(I21
I3
I0
tp3536
I60
s(I64
I105
I8
tp3537
I59
s(I45
I26
I0
tp3538
I6
s(I19
I102
I3
tp3539
I2
s(I62
I0
I2
tp3540
I20
s(I7
I123
I8
tp3541
I18
s(I64
I114
I0
tp3542
I2207
s(I45
I1
I8
tp3543
I11
s(I29
I95
I3
tp3544
I31
s(I41
I10
I2
tp3545
I3
s(I47
I18
I0
tp3546
I780
s(I2
I110
I8
tp3547
I827
s(I39
I104
I8
tp3548
I4
s(I9
I123
I0
tp3549
I69
s(I15
I8
I0
tp3550
I3
s(I17
I0
I5
tp3551
I2
s(I32
I91
I9
tp3552
I12
s(I29
I124
I0
tp3553
I2316
s(I44
I110
I6
tp3554
I386
s(I25
I4
I8
tp3555
I1
s(I18
I8
I9
tp3556
I1
s(I47
I127
I5
tp3557
I8
s(I34
I7
I2
tp3558
I12
s(I34
I108
I0
tp3559
I6
s(I21
I123
I6
tp3560
I9
s(I27
I16
I6
tp3561
I1
s(I56
I116
I5
tp3562
I5
s(I28
I99
I3
tp3563
I377
s(I3
I95
I9
tp3564
I888
s(I62
I0
I3
tp3565
I6
s(I30
I90
I9
tp3566
I12
s(I61
I122
I8
tp3567
I764
s(I7
I122
I9
tp3568
I8
s(I51
I17
I9
tp3569
I6
s(I60
I16
I6
tp3570
I5
s(I50
I127
I2
tp3571
I2
s(I18
I9
I8
tp3572
I92
s(I43
I94
I5
tp3573
I28
s(I33
I103
I3
tp3574
I558
s(I42
I24
I5
tp3575
I1
s(I51
I114
I0
tp3576
I653
s(I44
I114
I3
tp3577
I4
s(I12
I120
I9
tp3578
I5
s(I42
I7
I0
tp3579
I21
s(I6
I107
I6
tp3580
I6
s(I18
I77
I9
tp3581
I43
s(I18
I87
I8
tp3582
I2
s(I0
I2
I6
tp3583
I1
s(I55
I22
I9
tp3584
I1
s(I19
I126
I9
tp3585
I9
s(I37
I96
I3
tp3586
I2
s(I36
I78
I6
tp3587
I212
s(I14
I116
I3
tp3588
I4244
s(I48
I127
I2
tp3589
I6
s(I35
I16
I0
tp3590
I17
s(I26
I125
I5
tp3591
I7
s(I43
I20
I3
tp3592
I1
s(I37
I7
I9
tp3593
I1
s(I36
I14
I0
tp3594
I220
s(I60
I119
I0
tp3595
I2
s(I53
I15
I3
tp3596
I6
s(I62
I6
I8
tp3597
I3
s(I43
I127
I5
tp3598
I7
s(I61
I27
I0
tp3599
I227
s(I61
I98
I6
tp3600
I1
s(I50
I125
I9
tp3601
I445
s(I30
I114
I8
tp3602
I2
s(I5
I126
I0
tp3603
I1
s(I64
I19
I5
tp3604
I1
s(I44
I21
I6
tp3605
I1
s(I18
I108
I9
tp3606
I26
s(I24
I5
I2
tp3607
I2
s(I30
I113
I0
tp3608
I1717
s(I42
I102
I8
tp3609
I1
s(I10
I112
I6
tp3610
I10
s(I52
I10
I3
tp3611
I1
s(I61
I31
I5
tp3612
I90
s(I57
I8
I5
tp3613
I488
s(I35
I113
I2
tp3614
I5
s(I38
I82
I5
tp3615
I2
s(I2
I115
I6
tp3616
I336
s(I48
I84
I5
tp3617
I1
s(I14
I122
I8
tp3618
I7
s(I41
I92
I0
tp3619
I54
s(I18
I112
I2
tp3620
I2
s(I64
I120
I8
tp3621
I1
s(I32
I5
I0
tp3622
I19
s(I32
I110
I6
tp3623
I1
s(I50
I5
I5
tp3624
I6
s(I39
I118
I0
tp3625
I594
s(I7
I124
I6
tp3626
I19
s(I41
I97
I5
tp3627
I2
s(I59
I112
I6
tp3628
I17
s(I62
I96
I2
tp3629
I12
s(I24
I125
I6
tp3630
I4
s(I11
I110
I0
tp3631
I1620
s(I29
I124
I9
tp3632
I7
s(I29
I102
I8
tp3633
I3
s(I38
I125
I3
tp3634
I9
s(I3
I100
I8
tp3635
I4
s(I43
I18
I5
tp3636
I1
s(I33
I2
I3
tp3637
I6
s(I27
I5
I9
tp3638
I2
s(I24
I5
I0
tp3639
I16
s(I3
I95
I0
tp3640
I10
s(I43
I125
I3
tp3641
I4
s(I8
I98
I6
tp3642
I1
s(I61
I29
I2
tp3643
I3
s(I61
I100
I0
tp3644
I245
s(I20
I103
I3
tp3645
I2
s(I51
I17
I0
tp3646
I2049
s(I63
I111
I9
tp3647
I2253
s(I59
I21
I5
tp3648
I2
s(I42
I36
I0
tp3649
I4
s(I51
I114
I9
tp3650
I1000
s(I20
I120
I9
tp3651
I7
s(I12
I98
I2
tp3652
I69
s(I25
I99
I3
tp3653
I3
s(I32
I98
I3
tp3654
I7
s(I35
I84
I8
tp3655
I5
s(I10
I114
I0
tp3656
I20
s(I46
I112
I6
tp3657
I6
s(I8
I126
I3
tp3658
I1
s(I64
I93
I8
tp3659
I56
s(I10
I107
I8
tp3660
I1
s(I25
I95
I2
tp3661
I2
s(I12
I10
I0
tp3662
I22
s(I2
I117
I0
tp3663
I1
s(I64
I29
I2
tp3664
I38
s(I29
I100
I3
tp3665
I4
s(I29
I11
I3
tp3666
I4
s(I50
I104
I6
tp3667
I1
s(I9
I115
I9
tp3668
I1
s(I53
I121
I5
tp3669
I33
s(I37
I7
I0
tp3670
I67
s(I27
I7
I6
tp3671
I1
s(I36
I4
I8
tp3672
I6
s(I10
I118
I5
tp3673
I12
s(I28
I107
I2
tp3674
I2
s(I62
I24
I0
tp3675
I297
s(I52
I107
I0
tp3676
I55
s(I5
I17
I0
tp3677
I1
s(I61
I5
I8
tp3678
I8
s(I57
I6
I2
tp3679
I1
s(I57
I93
I0
tp3680
I32
s(I24
I123
I0
tp3681
I3867
s(I48
I123
I6
tp3682
I1
s(I20
I122
I6
tp3683
I7
s(I7
I101
I0
tp3684
I25
s(I19
I9
I9
tp3685
I122
s(I44
I122
I0
tp3686
I4
s(I28
I6
I3
tp3687
I2
s(I30
I113
I9
tp3688
I4
s(I17
I84
I9
tp3689
I4
s(I10
I112
I9
tp3690
I1
s(I32
I104
I5
tp3691
I1
s(I16
I106
I0
tp3692
I4
s(I50
I11
I2
tp3693
I4
s(I3
I93
I6
tp3694
I6
s(I62
I20
I5
tp3695
I1
s(I41
I127
I0
tp3696
I19
s(I37
I120
I2
tp3697
I2
s(I14
I108
I0
tp3698
I3
s(I34
I13
I8
tp3699
I1
s(I24
I1
I6
tp3700
I6
s(I21
I113
I8
tp3701
I2
s(I20
I25
I2
tp3702
I1
s(I6
I127
I0
tp3703
I2
s(I34
I123
I6
tp3704
I2
s(I57
I4
I9
tp3705
I451
s(I60
I26
I8
tp3706
I1
s(I2
I28
I0
tp3707
I1
s(I11
I110
I9
tp3708
I4
s(I36
I90
I0
tp3709
I2
s(I11
I116
I8
tp3710
I19
s(I60
I90
I2
tp3711
I49
s(I44
I116
I9
tp3712
I575
s(I33
I10
I0
tp3713
I37
s(I19
I1
I3
tp3714
I8
s(I3
I122
I0
tp3715
I4376
s(I18
I116
I6
tp3716
I19
s(I21
I117
I5
tp3717
I7
s(I27
I5
I0
tp3718
I233
s(I15
I108
I2
tp3719
I25
s(I32
I106
I2
tp3720
I558
s(I46
I17
I5
tp3721
I5
s(I46
I110
I5
tp3722
I2
s(I52
I2
I0
tp3723
I2236
s(I42
I93
I0
tp3724
I57
s(I24
I121
I2
tp3725
I1
s(I15
I93
I6
tp3726
I33
s(I20
I120
I0
tp3727
I2092
s(I23
I105
I3
tp3728
I35
s(I44
I33
I0
tp3729
I2
s(I50
I110
I5
tp3730
I2
s(I62
I121
I5
tp3731
I1
s(I18
I120
I3
tp3732
I3
s(I41
I11
I9
tp3733
I3
s(I12
I111
I0
tp3734
I209
s(I37
I93
I9
tp3735
I335
s(I18
I97
I9
tp3736
I667
s(I46
I13
I0
tp3737
I1701
s(I39
I126
I3
tp3738
I8
s(I17
I107
I2
tp3739
I2
s(I14
I7
I0
tp3740
I7
s(I20
I124
I5
tp3741
I9
s(I38
I28
I0
tp3742
I11
s(I56
I34
I0
tp3743
I18
s(I62
I117
I0
tp3744
I4
s(I33
I10
I2
tp3745
I9
s(I5
I107
I2
tp3746
I19
s(I39
I2
I0
tp3747
I2195
s(I54
I111
I8
tp3748
I1
s(I63
I21
I0
tp3749
I147
s(I21
I112
I3
tp3750
I339
s(I34
I125
I0
tp3751
I2380
s(I62
I18
I8
tp3752
I5
s(I61
I108
I3
tp3753
I57
s(I7
I8
I0
tp3754
I2
s(I50
I81
I9
tp3755
I1
s(I64
I25
I6
tp3756
I3
s(I55
I125
I2
tp3757
I3
s(I41
I90
I6
tp3758
I1
s(I7
I115
I8
tp3759
I12
s(I50
I108
I2
tp3760
I3
s(I3
I120
I2
tp3761
I1
s(I18
I118
I8
tp3762
I3
s(I18
I0
I9
tp3763
I1
s(I45
I7
I9
tp3764
I4
s(I41
I26
I0
tp3765
I8
s(I25
I120
I5
tp3766
I9
s(I43
I123
I8
tp3767
I4
s(I8
I118
I0
tp3768
I70
s(I70
I8
I9
tp3769
I1
s(I2
I125
I3
tp3770
I4
s(I33
I107
I0
tp3771
I2
s(I45
I94
I8
tp3772
I5
s(I20
I126
I2
tp3773
I12
s(I29
I108
I2
tp3774
I1
s(I18
I111
I6
tp3775
I1
s(I18
I122
I5
tp3776
I8
s(I42
I19
I3
tp3777
I1
s(I25
I116
I0
tp3778
I4404
s(I12
I109
I2
tp3779
I9
s(I46
I15
I2
tp3780
I3
s(I42
I8
I5
tp3781
I4
s(I28
I78
I6
tp3782
I2
s(I6
I100
I3
tp3783
I1
s(I28
I14
I0
tp3784
I187
s(I28
I87
I2
tp3785
I2
s(I39
I0
I2
tp3786
I1
s(I44
I93
I8
tp3787
I4
s(I30
I102
I0
tp3788
I140
s(I54
I31
I0
tp3789
I1
s(I56
I3
I5
tp3790
I6
s(I55
I99
I0
tp3791
I54
s(I30
I95
I8
tp3792
I4
s(I23
I112
I6
tp3793
I6
s(I19
I111
I9
tp3794
I5
s(I12
I111
I9
tp3795
I2
s(I12
I117
I8
tp3796
I12
s(I46
I106
I9
tp3797
I501
s(I7
I121
I2
tp3798
I19
s(I30
I98
I5
tp3799
I4
s(I26
I109
I5
tp3800
I1
s(I32
I22
I0
tp3801
I25
s(I41
I115
I6
tp3802
I2
s(I14
I119
I3
tp3803
I73
s(I56
I127
I0
tp3804
I34
s(I59
I110
I5
tp3805
I2
s(I62
I15
I6
tp3806
I43
s(I57
I27
I0
tp3807
I13
s(I26
I112
I3
tp3808
I2
s(I62
I117
I9
tp3809
I261
s(I32
I9
I3
tp3810
I1
s(I25
I118
I2
tp3811
I4
s(I34
I125
I9
tp3812
I6
s(I34
I103
I8
tp3813
I1
s(I55
I0
I6
tp3814
I370
s(I11
I81
I6
tp3815
I1
s(I26
I97
I0
tp3816
I315
s(I16
I93
I6
tp3817
I69
s(I30
I93
I3
tp3818
I1
s(I61
I115
I0
tp3819
I22
s(I35
I98
I5
tp3820
I16
s(I47
I97
I2
tp3821
I3
s(I18
I0
I0
tp3822
I222
s(I42
I112
I2
tp3823
I1
s(I26
I12
I5
tp3824
I1
s(I51
I123
I8
tp3825
I7
s(I7
I97
I0
tp3826
I23
s(I19
I113
I2
tp3827
I5
s(I53
I84
I0
tp3828
I29
s(I12
I119
I3
tp3829
I10
s(I43
I1
I0
tp3830
I629
s(I45
I110
I8
tp3831
I3
s(I51
I5
I5
tp3832
I4
s(I28
I112
I5
tp3833
I8
s(I52
I25
I3
tp3834
I1
s(I55
I97
I6
tp3835
I2
s(I17
I115
I3
tp3836
I20
s(I64
I84
I9
tp3837
I2
s(I23
I111
I8
tp3838
I5
s(I35
I126
I0
tp3839
I2391
s(I41
I104
I9
tp3840
I975
s(I12
I82
I2
tp3841
I43
s(I37
I105
I9
tp3842
I1511
s(I64
I110
I2
tp3843
I54
s(I48
I96
I9
tp3844
I1878
s(I26
I0
I6
tp3845
I3
s(I23
I118
I0
tp3846
I3891
s(I25
I116
I9
tp3847
I7
s(I32
I20
I6
tp3848
I3
s(I32
I125
I0
tp3849
I1
s(I54
I5
I5
tp3850
I3
s(I38
I32
I0
tp3851
I6
s(I5
I0
I0
tp3852
I131
s(I61
I20
I8
tp3853
I1
s(I45
I89
I5
tp3854
I2
s(I50
I116
I3
tp3855
I2
s(I37
I19
I5
tp3856
I2
s(I29
I119
I6
tp3857
I4
s(I44
I107
I0
tp3858
I227
s(I46
I11
I6
tp3859
I6
s(I55
I6
I0
tp3860
I12
s(I44
I25
I2
tp3861
I3
s(I16
I91
I0
tp3862
I15
s(I43
I106
I3
tp3863
I2
s(I23
I12
I0
tp3864
I4
s(I7
I113
I5
tp3865
I1
s(I47
I103
I0
tp3866
I55
s(I62
I115
I6
tp3867
I1
s(I27
I108
I6
tp3868
I1
s(I8
I10
I0
tp3869
I7
s(I26
I118
I8
tp3870
I44
s(I14
I125
I0
tp3871
I142
s(I14
I26
I2
tp3872
I1
s(I51
I121
I6
tp3873
I8
s(I19
I111
I0
tp3874
I1977
s(I21
I113
I0
tp3875
I4075
s(I34
I4
I9
tp3876
I5
s(I43
I15
I2
tp3877
I1
s(I61
I11
I9
tp3878
I2161
s(I29
I88
I2
tp3879
I2
s(I47
I19
I8
tp3880
I2
s(I6
I108
I0
tp3881
I55
s(I47
I9
I9
tp3882
I1
s(I7
I117
I2
tp3883
I8
s(I0
I2
I8
tp3884
I202
s(I21
I103
I6
tp3885
I4
s(I23
I116
I2
tp3886
I2
s(I63
I90
I3
tp3887
I11
s(I50
I27
I0
tp3888
I214
s(I26
I97
I9
tp3889
I26
s(I10
I121
I5
tp3890
I2
s(I60
I12
I6
tp3891
I3
s(I28
I122
I0
tp3892
I142
s(I62
I11
I2
tp3893
I8
s(I52
I122
I2
tp3894
I3
s(I20
I9
I0
tp3895
I1
s(I35
I12
I2
tp3896
I5
s(I38
I1
I5
tp3897
I2
s(I38
I110
I5
tp3898
I6
s(I44
I18
I0
tp3899
I437
s(I15
I118
I5
tp3900
I976
s(I21
I120
I2
tp3901
I1149
s(I55
I4
I2
tp3902
I1
s(I45
I120
I0
tp3903
I2005
s(I56
I119
I3
tp3904
I1498
s(I37
I114
I8
tp3905
I1632
s(I59
I15
I6
tp3906
I1
s(I70
I123
I0
tp3907
I1
s(I37
I105
I0
tp3908
I9
s(I27
I106
I0
tp3909
I569
s(I42
I116
I6
tp3910
I10
s(I14
I127
I2
tp3911
I8
s(I26
I0
I9
tp3912
I8
s(I32
I90
I0
tp3913
I51
s(I38
I13
I0
tp3914
I447
s(I19
I109
I6
tp3915
I2
s(I16
I32
I2
tp3916
I1
s(I5
I125
I6
tp3917
I2
s(I15
I106
I0
tp3918
I29
s(I33
I13
I6
tp3919
I1
s(I54
I102
I9
tp3920
I1903
s(I63
I4
I0
tp3921
I352
s(I28
I116
I9
tp3922
I5
s(I39
I109
I6
tp3923
I3
s(I0
I0
I6
tp3924
I3
s(I53
I117
I9
tp3925
I1002
s(I21
I2
I6
tp3926
I1
s(I62
I127
I6
tp3927
I1
s(I64
I106
I6
tp3928
I2
s(I26
I93
I0
tp3929
I266
s(I44
I107
I9
tp3930
I2
s(I19
I105
I3
tp3931
I2
s(I12
I127
I2
tp3932
I12
s(I64
I115
I2
tp3933
I271
s(I44
I123
I5
tp3934
I2
s(I41
I9
I0
tp3935
I1
s(I8
I103
I0
tp3936
I529
s(I61
I127
I6
tp3937
I8
s(I35
I118
I3
tp3938
I1
s(I9
I3
I0
tp3939
I114
s(I43
I85
I0
tp3940
I2
s(I21
I93
I9
tp3941
I2
s(I8
I0
I8
tp3942
I2
s(I29
I123
I2
tp3943
I3
s(I34
I4
I0
tp3944
I856
s(I11
I91
I0
tp3945
I49
s(I60
I118
I9
tp3946
I1
s(I6
I118
I8
tp3947
I489
s(I46
I117
I0
tp3948
I255
s(I17
I125
I8
tp3949
I6
s(I48
I81
I8
tp3950
I1
s(I7
I117
I9
tp3951
I77
s(I11
I126
I3
tp3952
I2
s(I60
I17
I0
tp3953
I2
s(I50
I124
I0
tp3954
I51
s(I3
I8
I0
tp3955
I2
s(I37
I107
I6
tp3956
I5
s(I17
I100
I0
tp3957
I41
s(I20
I3
I5
tp3958
I1
s(I51
I117
I2
tp3959
I2
s(I38
I15
I2
tp3960
I9
s(I44
I115
I3
tp3961
I2
s(I34
I8
I5
tp3962
I1
s(I34
I81
I9
tp3963
I393
s(I5
I92
I0
tp3964
I356
s(I20
I85
I8
tp3965
I1
s(I63
I125
I0
tp3966
I289
s(I50
I0
I3
tp3967
I260
s(I53
I10
I0
tp3968
I1
s(I59
I9
I5
tp3969
I6
s(I33
I91
I2
tp3970
I214
s(I17
I121
I5
tp3971
I7
s(I61
I22
I3
tp3972
I2
s(I20
I110
I0
tp3973
I9
s(I35
I120
I6
tp3974
I3
s(I9
I120
I5
tp3975
I5
s(I59
I117
I6
tp3976
I1498
s(I21
I4
I0
tp3977
I85
s(I55
I114
I0
tp3978
I3
s(I45
I27
I0
tp3979
I5
s(I45
I120
I9
tp3980
I3
s(I2
I12
I9
tp3981
I1
s(I52
I126
I6
tp3982
I260
s(I55
I111
I5
tp3983
I10
s(I39
I119
I9
tp3984
I1333
s(I7
I125
I3
tp3985
I2
s(I9
I116
I0
tp3986
I4337
s(I59
I113
I3
tp3987
I12
s(I15
I9
I0
tp3988
I56
s(I29
I125
I0
tp3989
I1766
s(I44
I109
I6
tp3990
I45
s(I38
I112
I6
tp3991
I8
s(I24
I6
I0
tp3992
I110
s(I2
I85
I9
tp3993
I1
s(I36
I100
I9
tp3994
I407
s(I59
I11
I2
tp3995
I1
s(I50
I39
I0
tp3996
I1
s(I18
I8
I8
tp3997
I3
s(I14
I123
I6
tp3998
I3
s(I29
I97
I5
tp3999
I377
s(I3
I97
I6
tp4000
I6
s(I18
I113
I0
tp4001
I108
s(I45
I0
I3
tp4002
I7
s(I54
I98
I5
tp4003
I2
s(I50
I93
I5
tp4004
I3
s(I47
I86
I3
tp4005
I1
s(I8
I103
I9
tp4006
I4
s(I30
I81
I6
tp4007
I378
s(I45
I93
I8
tp4008
I28
s(I51
I20
I3
tp4009
I1
s(I57
I11
I2
tp4010
I5
s(I56
I18
I9
tp4011
I1
s(I21
I6
I2
tp4012
I1
s(I21
I93
I0
tp4013
I560
s(I11
I97
I2
tp4014
I33
s(I48
I126
I6
tp4015
I6
s(I23
I126
I8
tp4016
I1
s(I51
I111
I5
tp4017
I1
s(I35
I17
I0
tp4018
I44
s(I10
I9
I8
tp4019
I1
s(I46
I86
I0
tp4020
I220
s(I36
I13
I0
tp4021
I5
s(I60
I118
I0
tp4022
I3
s(I25
I125
I8
tp4023
I6
s(I53
I0
I5
tp4024
I1452
s(I62
I1
I8
tp4025
I1
s(I52
I124
I8
tp4026
I4
s(I27
I94
I0
tp4027
I1685
s(I46
I111
I8
tp4028
I4
s(I30
I109
I5
tp4029
I2
s(I56
I14
I2
tp4030
I193
s(I9
I118
I2
tp4031
I3
s(I24
I122
I9
tp4032
I1
s(I5
I127
I0
tp4033
I69
s(I26
I85
I3
tp4034
I2
s(I29
I6
I0
tp4035
I5
s(I24
I4
I6
tp4036
I1
s(I27
I115
I5
tp4037
I8
s(I46
I82
I5
tp4038
I1
s(I42
I4
I9
tp4039
I8
s(I10
I115
I6
tp4040
I1
s(I47
I21
I3
tp4041
I6
s(I3
I90
I9
tp4042
I18
s(I52
I112
I5
tp4043
I1
s(I55
I17
I0
tp4044
I422
s(I26
I112
I2
tp4045
I5
s(I54
I22
I8
tp4046
I1
s(I21
I4
I9
tp4047
I1
s(I14
I117
I8
tp4048
I2
s(I64
I30
I0
tp4049
I144
s(I38
I11
I6
tp4050
I3
s(I19
I103
I8
tp4051
I27
s(I47
I118
I0
tp4052
I254
s(I62
I96
I6
tp4053
I10
s(I15
I108
I6
tp4054
I4
s(I27
I89
I6
tp4055
I1
s(I16
I119
I8
tp4056
I1
s(I32
I4
I0
tp4057
I1
s(I32
I109
I6
tp4058
I10
s(I19
I126
I0
tp4059
I2105
s(I46
I20
I3
tp4060
I6
s(I46
I109
I3
tp4061
I2
s(I39
I119
I0
tp4062
I2034
s(I9
I116
I9
tp4063
I30
s(I6
I93
I0
tp4064
I364
s(I9
I78
I8
tp4065
I35
s(I11
I111
I0
tp4066
I2037
s(I48
I124
I0
tp4067
I1967
s(I51
I109
I3
tp4068
I1
s(I19
I99
I5
tp4069
I4
s(I41
I2
I2
tp4070
I7
s(I3
I123
I9
tp4071
I8
s(I62
I124
I3
tp4072
I1
s(I30
I118
I9
tp4073
I3
s(I41
I88
I9
tp4074
I1845
s(I48
I101
I8
tp4075
I3
s(I50
I8
I0
tp4076
I590
s(I34
I116
I3
tp4077
I1926
s(I36
I122
I6
tp4078
I8
s(I39
I123
I5
tp4079
I10
s(I41
I126
I6
tp4080
I5
s(I34
I121
I5
tp4081
I3
s(I55
I122
I3
tp4082
I598
s(I48
I120
I5
tp4083
I7
s(I10
I86
I9
tp4084
I12
s(I19
I4
I0
tp4085
I5
s(I37
I4
I5
tp4086
I4
s(I38
I124
I3
tp4087
I1
s(I20
I26
I0
tp4088
I6
s(I10
I117
I0
tp4089
I4409
s(I16
I119
I9
tp4090
I16
s(I50
I10
I2
tp4091
I1
s(I53
I93
I8
tp4092
I1
s(I2
I111
I8
tp4093
I904
s(I43
I6
I8
tp4094
I10
s(I46
I12
I9
tp4095
I1
s(I37
I97
I8
tp4096
I16
s(I2
I116
I0
tp4097
I4
s(I17
I98
I6
tp4098
I1
s(I20
I5
I3
tp4099
I1
s(I7
I102
I5
tp4100
I3
s(I60
I91
I0
tp4101
I29
s(I41
I95
I6
tp4102
I1
s(I3
I125
I2
tp4103
I9
s(I27
I125
I0
tp4104
I3
s(I48
I103
I3
tp4105
I6
s(I32
I107
I0
tp4106
I367
s(I60
I124
I8
tp4107
I7
s(I28
I106
I6
tp4108
I2
s(I62
I27
I0
tp4109
I6
s(I27
I94
I9
tp4110
I2
s(I5
I18
I0
tp4111
I1
s(I57
I7
I6
tp4112
I1026
s(I32
I116
I8
tp4113
I11
s(I59
I127
I8
tp4114
I555
s(I37
I101
I5
tp4115
I2
s(I24
I122
I0
tp4116
I181
s(I15
I0
I0
tp4117
I31
s(I48
I122
I2
tp4118
I1
s(I20
I121
I6
tp4119
I1
s(I7
I106
I0
tp4120
I1525
s(I62
I126
I5
tp4121
I1
s(I18
I121
I3
tp4122
I10
s(I38
I93
I0
tp4123
I29
s(I36
I122
I2
tp4124
I9
s(I54
I9
I9
tp4125
I1760
s(I38
I101
I9
tp4126
I10
s(I50
I10
I6
tp4127
I3
s(I51
I12
I2
tp4128
I2
s(I57
I3
I3
tp4129
I6
s(I41
I120
I0
tp4130
I2037
s(I9
I114
I6
tp4131
I3
s(I59
I123
I5
tp4132
I764
s(I14
I111
I0
tp4133
I30
s(I2
I114
I5
tp4134
I2
s(I19
I93
I0
tp4135
I166
s(I21
I114
I8
tp4136
I11
s(I39
I90
I0
tp4137
I31
s(I11
I33
I0
tp4138
I1
s(I44
I1
I2
tp4139
I10
s(I53
I95
I6
tp4140
I1
s(I61
I107
I3
tp4141
I2
s(I26
I116
I6
tp4142
I5
s(I6
I93
I9
tp4143
I3
s(I56
I6
I3
tp4144
I67
s(I59
I28
I0
tp4145
I14
s(I2
I31
I0
tp4146
I1
s(I17
I108
I8
tp4147
I26
s(I50
I109
I0
tp4148
I64
s(I3
I123
I0
tp4149
I119
s(I18
I119
I6
tp4150
I2
s(I33
I117
I5
tp4151
I3
s(I38
I101
I0
tp4152
I5
s(I28
I104
I0
tp4153
I646
s(I52
I1
I0
tp4154
I1115
s(I26
I104
I3
tp4155
I1
s(I60
I29
I3
tp4156
I45
s(I28
I113
I8
tp4157
I8
s(I43
I95
I8
tp4158
I1
s(I43
I101
I2
tp4159
I3
s(I11
I0
I6
tp4160
I1
s(I20
I127
I0
tp4161
I283
s(I10
I86
I0
tp4162
I6
s(I47
I110
I3
tp4163
I2
s(I3
I119
I5
tp4164
I489
s(I21
I19
I0
tp4165
I12
s(I33
I15
I9
tp4166
I1
s(I64
I121
I8
tp4167
I54
s(I45
I10
I0
tp4168
I9
s(I10
I117
I9
tp4169
I480
s(I19
I118
I3
tp4170
I4
s(I6
I124
I9
tp4171
I1
s(I28
I108
I5
tp4172
I5
s(I39
I20
I6
tp4173
I1
s(I46
I12
I0
tp4174
I360
s(I45
I113
I8
tp4175
I224
s(I60
I1
I6
tp4176
I6
s(I63
I9
I3
tp4177
I17
s(I56
I8
I8
tp4178
I21
s(I37
I123
I0
tp4179
I8
s(I5
I117
I6
tp4180
I4
s(I14
I6
I0
tp4181
I2
s(I38
I31
I0
tp4182
I1
s(I9
I107
I0
tp4183
I30
s(I27
I99
I8
tp4184
I1
s(I1
I125
I8
tp4185
I3340
s(I32
I107
I9
tp4186
I12
s(I32
I8
I6
tp4187
I4
s(I44
I94
I6
tp4188
I32
s(I25
I20
I8
tp4189
I1
s(I6
I120
I2
tp4190
I8
s(I34
I124
I0
tp4191
I14
s(I48
I0
I0
tp4192
I2060
s(I7
I9
I0
tp4193
I8
s(I28
I115
I3
tp4194
I1298
s(I59
I101
I0
tp4195
I57
s(I24
I112
I8
tp4196
I6
s(I14
I101
I5
tp4197
I38
s(I7
I106
I9
tp4198
I6
s(I16
I22
I0
tp4199
I5
s(I43
I78
I5
tp4200
I24
s(I27
I0
I2
tp4201
I14
s(I33
I119
I3
tp4202
I14
s(I41
I27
I0
tp4203
I23
s(I19
I120
I6
tp4204
I1
s(I28
I110
I2
tp4205
I2
s(I43
I120
I8
tp4206
I2
s(I59
I6
I5
tp4207
I8
s(I24
I3
I8
tp4208
I1
s(I33
I84
I0
tp4209
I26
s(I3
I117
I3
tp4210
I6
s(I62
I122
I9
tp4211
I2203
s(I2
I91
I8
tp4212
I353
s(I21
I108
I0
tp4213
I34
s(I42
I125
I5
tp4214
I6
s(I48
I111
I2
tp4215
I3
s(I35
I0
I0
tp4216
I6
s(I43
I4
I3
tp4217
I9
s(I11
I80
I8
tp4218
I2
s(I51
I8
I6
tp4219
I2
s(I59
I2
I8
tp4220
I6
s(I23
I0
I6
tp4221
I5
s(I43
I111
I5
tp4222
I3
s(I27
I33
I0
tp4223
I2
s(I14
I0
I2
tp4224
I8
s(I57
I109
I9
tp4225
I548
s(I50
I109
I9
tp4226
I504
s(I28
I13
I0
tp4227
I1
s(I27
I97
I6
tp4228
I3
s(I64
I99
I5
tp4229
I2
s(I42
I113
I0
tp4230
I1691
s(I45
I16
I5
tp4231
I2
s(I44
I5
I6
tp4232
I3
s(I24
I21
I2
tp4233
I1
s(I30
I97
I0
tp4234
I266
s(I20
I92
I0
tp4235
I511
s(I23
I3
I0
tp4236
I2
s(I57
I24
I5
tp4237
I1
s(I35
I97
I2
tp4238
I6
s(I37
I30
I6
tp4239
I1
s(I64
I111
I0
tp4240
I38
s(I39
I5
I3
tp4241
I3
s(I23
I113
I2
tp4242
I1
s(I44
I96
I5
tp4243
I5
s(I47
I1
I0
tp4244
I239
s(I32
I21
I0
tp4245
I2
s(I64
I2
I5
tp4246
I3
s(I39
I102
I0
tp4247
I33
s(I29
I111
I0
tp4248
I5
s(I57
I20
I0
tp4249
I215
s(I9
I125
I8
tp4250
I17
s(I29
I118
I8
tp4251
I3
s(I38
I4
I3
tp4252
I3
s(I38
I109
I3
tp4253
I3
s(I25
I14
I0
tp4254
I3
s(I43
I2
I5
tp4255
I11
s(I55
I1
I2
tp4256
I6
s(I51
I6
I8
tp4257
I8
s(I60
I5
I2
tp4258
I3
s(I11
I115
I5
tp4259
I7
s(I17
I31
I0
tp4260
I1
s(I61
I116
I0
tp4261
I3
s(I20
I119
I3
tp4262
I7
s(I51
I97
I0
tp4263
I1
s(I59
I37
I5
tp4264
I14
s(I18
I3
I0
tp4265
I18
s(I36
I31
I5
tp4266
I1
s(I36
I112
I5
tp4267
I7
s(I33
I116
I9
tp4268
I21
s(I44
I11
I8
tp4269
I6
s(I25
I115
I3
tp4270
I10
s(I11
I20
I0
tp4271
I8
s(I29
I109
I9
tp4272
I6
s(I64
I109
I2
tp4273
I1
s(I26
I3
I6
tp4274
I3
s(I29
I116
I3
tp4275
I1377
s(I6
I117
I0
tp4276
I3487
s(I61
I14
I0
tp4277
I26
s(I63
I5
I9
tp4278
I16
s(I28
I123
I2
tp4279
I1646
s(I62
I8
I0
tp4280
I521
s(I52
I123
I0
tp4281
I1733
s(I27
I87
I8
tp4282
I1
s(I57
I22
I2
tp4283
I1
s(I57
I109
I0
tp4284
I61
s(I7
I108
I6
tp4285
I4
s(I42
I113
I9
tp4286
I577
s(I5
I120
I8
tp4287
I2
s(I48
I107
I6
tp4288
I2
s(I11
I1
I0
tp4289
I146
s(I44
I106
I0
tp4290
I1
s(I15
I113
I5
tp4291
I12
s(I30
I123
I8
tp4292
I4
s(I45
I119
I2
tp4293
I4
s(I29
I85
I5
tp4294
I240
s(I32
I120
I5
tp4295
I3
s(I61
I118
I2
tp4296
I1
s(I23
I13
I0
tp4297
I38
s(I41
I111
I0
tp4298
I72
s(I0
I5
I5
tp4299
I114
s(I27
I109
I2
tp4300
I474
s(I8
I9
I0
tp4301
I1
s(I64
I111
I9
tp4302
I4
s(I14
I124
I0
tp4303
I129
s(I25
I4
I5
tp4304
I3
s(I56
I91
I0
tp4305
I32
s(I47
I127
I8
tp4306
I1
s(I15
I117
I2
tp4307
I12
s(I8
I108
I5
tp4308
I1
s(I11
I125
I0
tp4309
I975
s(I1
I2
I0
tp4310
I36
s(I3
I115
I8
tp4311
I2386
s(I0
I1
I8
tp4312
I3
s(I27
I10
I8
tp4313
I1
s(I36
I17
I2
tp4314
I12
s(I60
I106
I2
tp4315
I53
s(I44
I100
I9
tp4316
I641
s(I3
I106
I0
tp4317
I8
s(I18
I100
I6
tp4318
I1
s(I27
I21
I0
tp4319
I17
s(I30
I121
I3
tp4320
I6
s(I48
I22
I3
tp4321
I4
s(I32
I122
I2
tp4322
I12
s(I7
I23
I3
tp4323
I24
s(I59
I0
I3
tp4324
I11
s(I46
I126
I5
tp4325
I10
s(I52
I18
I0
tp4326
I2054
s(I64
I14
I9
tp4327
I45
s(I23
I86
I5
tp4328
I166
s(I35
I121
I3
tp4329
I6
s(I53
I104
I0
tp4330
I60
s(I59
I114
I9
tp4331
I668
s(I55
I115
I9
tp4332
I508
s(I23
I121
I3
tp4333
I44
s(I44
I17
I0
tp4334
I4
s(I12
I124
I9
tp4335
I1
s(I30
I117
I6
tp4336
I9
s(I35
I90
I0
tp4337
I29
s(I26
I23
I0
tp4338
I4
s(I59
I12
I6
tp4339
I1
s(I37
I77
I9
tp4340
I2
s(I18
I81
I9
tp4341
I43
s(I39
I110
I3
tp4342
I4
s(I23
I90
I0
tp4343
I410
s(I0
I3
I3
tp4344
I16
s(I12
I0
I8
tp4345
I1
s(I25
I98
I6
tp4346
I72
s(I42
I119
I6
tp4347
I2
s(I17
I91
I2
tp4348
I1
s(I39
I17
I9
tp4349
I1
s(I16
I123
I5
tp4350
I8
s(I38
I12
I0
tp4351
I38
s(I50
I24
I9
tp4352
I2
s(I25
I123
I6
tp4353
I6
s(I47
I125
I6
tp4354
I10
s(I62
I101
I0
tp4355
I275
s(I46
I0
I5
tp4356
I2
s(I5
I91
I2
tp4357
I12
s(I55
I9
I3
tp4358
I1026
s(I20
I86
I6
tp4359
I1
s(I54
I127
I8
tp4360
I8
s(I28
I108
I9
tp4361
I1
s(I63
I5
I0
tp4362
I502
s(I62
I2
I8
tp4363
I4
s(I61
I124
I3
tp4364
I53
s(I39
I114
I6
tp4365
I2
s(I7
I120
I0
tp4366
I103
s(I56
I21
I3
tp4367
I20
s(I27
I121
I3
tp4368
I2
s(I21
I3
I2
tp4369
I1
s(I11
I111
I8
tp4370
I2
s(I26
I7
I2
tp4371
I1
s(I26
I92
I0
tp4372
I1
s(I7
I99
I8
tp4373
I3
s(I44
I112
I8
tp4374
I26
s(I18
I112
I9
tp4375
I12
s(I54
I0
I3
tp4376
I10
s(I41
I10
I0
tp4377
I39
s(I6
I117
I5
tp4378
I30
s(I43
I107
I8
tp4379
I2
s(I8
I102
I0
tp4380
I25
s(I70
I120
I9
tp4381
I12
s(I0
I124
I8
tp4382
I3
s(I9
I123
I2
tp4383
I20
s(I27
I109
I9
tp4384
I6
s(I33
I123
I0
tp4385
I18
s(I29
I124
I2
tp4386
I3
s(I34
I7
I0
tp4387
I9
s(I18
I106
I5
tp4388
I1
s(I21
I123
I0
tp4389
I1
s(I42
I3
I3
tp4390
I11
s(I45
I123
I6
tp4391
I5
s(I29
I89
I9
tp4392
I5
s(I60
I15
I8
tp4393
I12
s(I6
I113
I8
tp4394
I338
s(I2
I104
I2
tp4395
I3
s(I52
I115
I3
tp4396
I2
s(I21
I118
I2
tp4397
I2
s(I3
I9
I0
tp4398
I1
s(I6
I84
I3
tp4399
I59
s(I35
I20
I3
tp4400
I1
s(I28
I30
I0
tp4401
I1
s(I43
I8
I6
tp4402
I2
s(I15
I105
I6
tp4403
I1
s(I45
I127
I3
tp4404
I3
s(I63
I114
I0
tp4405
I390
s(I53
I11
I0
tp4406
I37
s(I24
I102
I2
tp4407
I3
s(I55
I104
I8
tp4408
I9
s(I52
I8
I8
tp4409
I2
s(I62
I35
I3
tp4410
I2
s(I5
I122
I3
tp4411
I1
s(I55
I115
I0
tp4412
I57
s(I30
I79
I8
tp4413
I6
s(I25
I127
I6
tp4414
I1
s(I51
I110
I9
tp4415
I503
s(I37
I86
I8
tp4416
I214
s(I12
I124
I0
tp4417
I145
s(I15
I109
I3
tp4418
I922
s(I64
I112
I0
tp4419
I188
s(I10
I124
I3
tp4420
I7
s(I56
I108
I9
tp4421
I544
s(I37
I77
I0
tp4422
I1
s(I43
I122
I5
tp4423
I2
s(I46
I122
I9
tp4424
I439
s(I30
I82
I5
tp4425
I2
s(I23
I90
I9
tp4426
I1
s(I59
I126
I5
tp4427
I6
s(I39
I17
I0
tp4428
I213
s(I44
I124
I5
tp4429
I3
s(I62
I101
I9
tp4430
I2
s(I62
I127
I8
tp4431
I5
s(I24
I94
I6
tp4432
I1457
s(I30
I113
I2
tp4433
I40
s(I14
I87
I3
tp4434
I1
s(I48
I30
I0
tp4435
I4
s(I54
I97
I0
tp4436
I54
s(I34
I119
I8
tp4437
I3
s(I26
I113
I0
tp4438
I1313
s(I16
I77
I6
tp4439
I43
s(I44
I94
I2
tp4440
I3
s(I17
I103
I6
tp4441
I2
s(I17
I14
I0
tp4442
I3
s(I25
I2
I3
tp4443
I2
s(I18
I112
I0
tp4444
I2
s(I44
I2
I9
tp4445
I3
s(I56
I110
I6
tp4446
I10
s(I12
I103
I3
tp4447
I38
s(I43
I113
I0
tp4448
I32
s(I8
I124
I8
tp4449
I18
s(I39
I118
I2
tp4450
I11
s(I51
I21
I5
tp4451
I3
s(I35
I119
I8
tp4452
I4
s(I10
I19
I0
tp4453
I8
s(I9
I123
I9
tp4454
I1
s(I5
I124
I5
tp4455
I18
s(I55
I113
I6
tp4456
I2
s(I17
I99
I3
tp4457
I3
s(I45
I30
I2
tp4458
I2
s(I23
I127
I8
tp4459
I8
s(I35
I110
I0
tp4460
I96
s(I25
I103
I0
tp4461
I34
s(I34
I108
I9
tp4462
I3
s(I46
I81
I0
tp4463
I6
s(I64
I126
I2
tp4464
I375
s(I34
I117
I3
tp4465
I1
s(I55
I18
I8
tp4466
I1
s(I46
I110
I8
tp4467
I4
s(I35
I115
I5
tp4468
I1632
s(I56
I13
I2
tp4469
I3
s(I9
I119
I6
tp4470
I5
s(I5
I112
I0
tp4471
I908
s(I61
I36
I8
tp4472
I7
s(I29
I7
I0
tp4473
I232
s(I57
I124
I0
tp4474
I12
s(I54
I8
I0
tp4475
I263
s(I44
I91
I0
tp4476
I215
s(I47
I10
I5
tp4477
I4
s(I2
I108
I6
tp4478
I8
s(I46
I27
I6
tp4479
I2
s(I55
I22
I0
tp4480
I158
s(I9
I115
I3
tp4481
I106
s(I41
I84
I0
tp4482
I53
s(I41
I117
I5
tp4483
I1
s(I23
I28
I0
tp4484
I6
s(I19
I100
I8
tp4485
I1
s(I47
I119
I0
tp4486
I1497
s(I27
I124
I6
tp4487
I2
s(I42
I27
I2
tp4488
I1
s(I1
I124
I5
tp4489
I12
s(I56
I108
I0
tp4490
I61
s(I9
I80
I0
tp4491
I1
s(I34
I20
I9
tp4492
I3
s(I24
I98
I6
tp4493
I20
s(I61
I27
I9
tp4494
I1
s(I54
I117
I0
tp4495
I462
s(I48
I88
I9
tp4496
I2
s(I57
I6
I0
tp4497
I1
s(I6
I92
I0
tp4498
I2
s(I36
I88
I9
tp4499
I254
s(I30
I106
I0
tp4500
I367
s(I44
I122
I6
tp4501
I9
s(I47
I107
I5
tp4502
I2
s(I21
I119
I6
tp4503
I8
s(I36
I123
I0
tp4504
I899
s(I50
I11
I0
tp4505
I193
s(I6
I115
I3
tp4506
I388
s(I52
I111
I9
tp4507
I503
s(I26
I113
I9
tp4508
I59
s(I41
I127
I2
tp4509
I7
s(I63
I10
I9
tp4510
I2181
s(I38
I127
I8
tp4511
I2
s(I5
I114
I2
tp4512
I12
s(I20
I0
I8
tp4513
I1
s(I19
I5
I0
tp4514
I244
s(I43
I28
I0
tp4515
I3
s(I20
I25
I0
tp4516
I1
s(I10
I116
I0
tp4517
I17
s(I44
I2
I0
tp4518
I624
s(I6
I127
I6
tp4519
I2
s(I26
I77
I0
tp4520
I1
s(I55
I20
I2
tp4521
I1
s(I45
I104
I0
tp4522
I73
s(I32
I119
I5
tp4523
I3
s(I37
I98
I8
tp4524
I54
s(I15
I89
I3
tp4525
I2
s(I36
I90
I6
tp4526
I53
s(I23
I101
I0
tp4527
I32
s(I44
I29
I3
tp4528
I2
s(I19
I1
I5
tp4529
I1
s(I46
I81
I9
tp4530
I29
s(I27
I122
I0
tp4531
I4088
s(I42
I100
I6
tp4532
I1
s(I32
I106
I0
tp4533
I84
s(I19
I125
I6
tp4534
I7
s(I56
I106
I2
tp4535
I2
s(I15
I122
I0
tp4536
I1885
s(I26
I105
I3
tp4537
I2
s(I57
I0
I6
tp4538
I555
s(I54
I118
I9
tp4539
I1005
s(I6
I7
I0
tp4540
I2
s(I5
I112
I9
tp4541
I4
s(I64
I7
I5
tp4542
I36
s(I48
I34
I0
tp4543
I3
s(I54
I85
I0
tp4544
I29
s(I41
I84
I5
tp4545
I1
s(I50
I21
I8
tp4546
I3
s(I64
I122
I6
tp4547
I1
s(I42
I120
I3
tp4548
I11
s(I45
I9
I6
tp4549
I1
s(I10
I114
I9
tp4550
I2024
s(I44
I91
I9
tp4551
I2
s(I44
I97
I8
tp4552
I1
s(I56
I9
I6
tp4553
I742
s(I11
I118
I5
tp4554
I2
s(I19
I90
I0
tp4555
I70
s(I34
I84
I6
tp4556
I5
s(I21
I109
I9
tp4557
I2
s(I39
I91
I0
tp4558
I53
s(I59
I123
I8
tp4559
I5
s(I35
I1
I9
tp4560
I4
s(I9
I80
I9
tp4561
I2
s(I6
I121
I0
tp4562
I490
s(I34
I20
I0
tp4563
I145
s(I12
I115
I9
tp4564
I2
s(I9
I116
I5
tp4565
I2
s(I46
I9
I9
tp4566
I7
s(I48
I88
I0
tp4567
I251
s(I26
I119
I6
tp4568
I1
s(I54
I116
I6
tp4569
I2
s(I60
I6
I9
tp4570
I1479
s(I25
I91
I0
tp4571
I7
s(I59
I100
I6
tp4572
I2
s(I8
I119
I0
tp4573
I4333
s(I17
I109
I8
tp4574
I4430
s(I17
I119
I9
tp4575
I1
s(I57
I116
I3
tp4576
I254
s(I60
I33
I0
tp4577
I7
s(I50
I108
I0
tp4578
I2
s(I34
I88
I3
tp4579
I209
s(I47
I12
I0
tp4580
I1
s(I17
I84
I0
tp4581
I42
s(I39
I6
I9
tp4582
I6
s(I44
I99
I3
tp4583
I3
s(I28
I111
I0
tp4584
I873
s(I26
I11
I6
tp4585
I1
s(I34
I97
I9
tp4586
I392
s(I15
I120
I2
tp4587
I1
s(I8
I118
I6
tp4588
I200
s(I63
I109
I0
tp4589
I77
s(I28
I112
I8
tp4590
I2
s(I33
I10
I3
tp4591
I1
s(I33
I107
I2
tp4592
I217
s(I17
I105
I5
tp4593
I1
s(I36
I92
I5
tp4594
I2
s(I20
I126
I0
tp4595
I13
s(I44
I126
I2
tp4596
I11
s(I21
I107
I2
tp4597
I9
s(I1
I124
I9
tp4598
I3
s(I42
I122
I5
tp4599
I3
s(I45
I11
I0
tp4600
I2061
s(I16
I118
I2
tp4601
I20
s(I46
I100
I6
tp4602
I2
s(I48
I3
I5
tp4603
I13
s(I45
I114
I8
tp4604
I10
s(I37
I124
I0
tp4605
I285
s(I5
I118
I6
tp4606
I1128
s(I55
I127
I5
tp4607
I10
s(I14
I104
I2
tp4608
I1
s(I39
I103
I9
tp4609
I971
s(I23
I83
I8
tp4610
I2
s(I7
I109
I3
tp4611
I1
s(I9
I100
I0
tp4612
I501
s(I27
I122
I9
tp4613
I10
s(I27
I96
I8
tp4614
I3
s(I64
I100
I5
tp4615
I7
s(I36
I115
I3
tp4616
I8
s(I44
I93
I6
tp4617
I1
s(I37
I111
I6
tp4618
I7
s(I6
I123
I2
tp4619
I1
s(I52
I2
I9
tp4620
I1383
s(I48
I15
I0
tp4621
I2003
s(I51
I94
I5
tp4622
I1
s(I41
I119
I3
tp4623
I7
s(I59
I98
I0
tp4624
I216
s(I2
I0
I2
tp4625
I18
s(I36
I94
I2
tp4626
I6
s(I16
I21
I0
tp4627
I1
s(I34
I90
I5
tp4628
I264
s(I29
I113
I5
tp4629
I1298
s(I47
I0
I6
tp4630
I13
s(I18
I97
I0
tp4631
I74
s(I45
I112
I3
tp4632
I1
s(I54
I114
I5
tp4633
I2
s(I56
I127
I2
tp4634
I764
s(I21
I86
I8
tp4635
I1
s(I55
I17
I2
tp4636
I1
s(I45
I77
I8
tp4637
I24
s(I10
I0
I0
tp4638
I1126
s(I2
I90
I8
tp4639
I9
s(I27
I98
I3
tp4640
I4
s(I36
I125
I6
tp4641
I1
s(I51
I127
I5
tp4642
I1
s(I35
I1
I0
tp4643
I1981
s(I8
I118
I3
tp4644
I20
s(I6
I121
I9
tp4645
I3685
s(I23
I104
I3
tp4646
I1
s(I46
I102
I0
tp4647
I55
s(I8
I112
I5
tp4648
I8
s(I61
I15
I9
tp4649
I2164
s(I60
I6
I0
tp4650
I259
s(I50
I81
I0
tp4651
I27
s(I46
I127
I8
tp4652
I6
s(I17
I119
I0
tp4653
I60
s(I61
I115
I2
tp4654
I1
s(I3
I14
I8
tp4655
I2
s(I5
I111
I0
tp4656
I831
s(I42
I112
I0
tp4657
I34
s(I29
I22
I0
tp4658
I1
s(I28
I111
I9
tp4659
I2
s(I24
I20
I6
tp4660
I1
s(I46
I5
I5
tp4661
I6
s(I46
I98
I5
tp4662
I6
s(I20
I83
I0
tp4663
I46
s(I54
I112
I2
tp4664
I5
s(I60
I10
I5
tp4665
I1
s(I63
I123
I8
tp4666
I65
s(I20
I116
I8
tp4667
I2
s(I64
I110
I0
tp4668
I2268
s(I39
I10
I5
tp4669
I82
s(I45
I21
I8
tp4670
I1
s(I29
I115
I3
tp4671
I145
s(I41
I22
I2
tp4672
I1
s(I19
I119
I8
tp4673
I11
s(I47
I6
I0
tp4674
I599
s(I15
I124
I6
tp4675
I3
s(I39
I124
I8
tp4676
I7
s(I32
I125
I6
tp4677
I6
s(I52
I38
I0
tp4678
I1
s(I46
I125
I3
tp4679
I8
s(I39
I103
I0
tp4680
I216
s(I23
I8
I3
tp4681
I2
s(I35
I122
I9
tp4682
I6
s(I9
I100
I9
tp4683
I2
s(I48
I108
I0
tp4684
I65
s(I51
I125
I3
tp4685
I8
s(I16
I114
I6
tp4686
I1865
s(I19
I115
I5
tp4687
I11
s(I25
I15
I0
tp4688
I37
s(I3
I107
I9
tp4689
I1646
s(I62
I108
I3
tp4690
I2
s(I30
I102
I9
tp4691
I13
s(I61
I110
I8
tp4692
I305
s(I48
I15
I9
tp4693
I2
s(I16
I9
I5
tp4694
I3
s(I27
I2
I5
tp4695
I1
s(I64
I13
I6
tp4696
I6
s(I39
I107
I5
tp4697
I3
s(I41
I110
I6
tp4698
I1
s(I0
I125
I5
tp4699
I41
s(I9
I9
I6
tp4700
I1
s(I28
I91
I0
tp4701
I51
s(I53
I105
I9
tp4702
I541
s(I64
I96
I9
tp4703
I1
s(I42
I22
I6
tp4704
I1
s(I48
I104
I5
tp4705
I1
s(I16
I126
I3
tp4706
I7
s(I50
I23
I3
tp4707
I3
s(I25
I11
I5
tp4708
I1
s(I10
I101
I0
tp4709
I556
s(I35
I91
I9
tp4710
I1
s(I37
I116
I3
tp4711
I7
s(I11
I21
I0
tp4712
I60
s(I14
I96
I3
tp4713
I488
s(I61
I121
I5
tp4714
I2
s(I45
I87
I0
tp4715
I1
s(I57
I27
I9
tp4716
I1
s(I30
I1
I5
tp4717
I9
s(I36
I18
I0
tp4718
I39
s(I14
I121
I9
tp4719
I2
s(I23
I116
I0
tp4720
I1
s(I60
I107
I0
tp4721
I207
s(I41
I101
I8
tp4722
I4
s(I47
I4
I2
tp4723
I8
s(I3
I109
I2
tp4724
I8
s(I37
I8
I0
tp4725
I800
s(I14
I92
I2
tp4726
I2
s(I32
I123
I0
tp4727
I2200
s(I28
I122
I6
tp4728
I9
s(I62
I11
I0
tp4729
I7
s(I52
I122
I0
tp4730
I32
s(I5
I2
I0
tp4731
I64
s(I70
I127
I3
tp4732
I361
s(I53
I119
I2
tp4733
I3
s(I5
I121
I8
tp4734
I3685
s(I14
I24
I5
tp4735
I1
s(I16
I112
I8
tp4736
I31
s(I7
I90
I0
tp4737
I45
s(I62
I110
I5
tp4738
I51
s(I18
I105
I3
tp4739
I2
s(I55
I4
I0
tp4740
I1
s(I36
I106
I2
tp4741
I4
s(I35
I93
I2
tp4742
I5
s(I63
I0
I3
tp4743
I10
s(I33
I10
I6
tp4744
I1
s(I64
I11
I0
tp4745
I184
s(I51
I28
I2
tp4746
I1
s(I57
I19
I3
tp4747
I9
s(I41
I104
I0
tp4748
I216
s(I0
I4
I3
tp4749
I104
s(I47
I101
I0
tp4750
I1
s(I14
I127
I0
tp4751
I2
s(I16
I124
I5
tp4752
I8
s(I19
I109
I0
tp4753
I9
s(I47
I124
I8
tp4754
I6
s(I45
I85
I8
tp4755
I28
s(I48
I9
I6
tp4756
I4
s(I21
I108
I3
tp4757
I219
s(I38
I123
I6
tp4758
I1
s(I27
I86
I3
tp4759
I6
s(I11
I122
I0
tp4760
I2142
s(I1
I124
I8
tp4761
I41
s(I61
I123
I3
tp4762
I1
s(I1
I3
I0
tp4763
I223
s(I17
I122
I6
tp4764
I3
s(I70
I7
I9
tp4765
I1
s(I3
I112
I8
tp4766
I8
s(I56
I22
I3
tp4767
I194
s(I26
I4
I0
tp4768
I235
s(I38
I118
I9
tp4769
I1332
s(I3
I107
I0
tp4770
I10
s(I18
I103
I6
tp4771
I30
s(I15
I110
I9
tp4772
I1
s(I32
I121
I2
tp4773
I3
s(I28
I120
I0
tp4774
I1526
s(I52
I17
I0
tp4775
I758
s(I17
I123
I6
tp4776
I13
s(I26
I120
I3
tp4777
I3
s(I35
I118
I5
tp4778
I2
s(I28
I11
I8
tp4779
I1
s(I47
I103
I9
tp4780
I645
s(I12
I3
I5
tp4781
I2
s(I47
I126
I3
tp4782
I7
s(I21
I122
I6
tp4783
I1
s(I42
I0
I3
tp4784
I12
s(I10
I101
I9
tp4785
I3
s(I6
I108
I9
tp4786
I13
s(I28
I124
I5
tp4787
I4
s(I24
I107
I5
tp4788
I18
s(I2
I105
I0
tp4789
I4
s(I46
I28
I0
tp4790
I6
s(I64
I9
I2
tp4791
I413
s(I55
I109
I6
tp4792
I4
s(I60
I17
I6
tp4793
I9
s(I56
I24
I8
tp4794
I1
s(I39
I125
I0
tp4795
I1
s(I60
I107
I9
tp4796
I1935
s(I38
I15
I0
tp4797
I2
s(I38
I116
I6
tp4798
I3
s(I41
I0
I5
tp4799
I9
s(I46
I3
I3
tp4800
I2
s(I27
I115
I8
tp4801
I1
s(I32
I123
I9
tp4802
I4
s(I29
I92
I0
tp4803
I54
s(I35
I87
I5
tp4804
I214
s(I44
I78
I6
tp4805
I24
s(I63
I125
I2
tp4806
I1
s(I53
I10
I6
tp4807
I1
s(I46
I100
I3
tp4808
I1
s(I24
I103
I0
tp4809
I543
s(I7
I121
I0
tp4810
I430
s(I17
I119
I3
tp4811
I12
s(I59
I117
I0
tp4812
I52
s(I33
I120
I5
tp4813
I4
s(I55
I114
I2
tp4814
I5
s(I14
I117
I5
tp4815
I11
s(I16
I6
I0
tp4816
I66
s(I50
I7
I3
tp4817
I7
s(I28
I3
I9
tp4818
I3
s(I54
I19
I6
tp4819
I1
s(I51
I82
I0
tp4820
I28
s(I41
I11
I0
tp4821
I807
s(I28
I126
I2
tp4822
I3
s(I43
I104
I8
tp4823
I4
s(I33
I93
I8
tp4824
I33
s(I64
I11
I9
tp4825
I1
s(I50
I108
I6
tp4826
I2
s(I26
I122
I5
tp4827
I4
s(I0
I123
I8
tp4828
I138
s(I14
I107
I3
tp4829
I10
s(I53
I107
I6
tp4830
I1
s(I14
I0
I3
tp4831
I5
s(I33
I100
I0
tp4832
I35
s(I55
I118
I9
tp4833
I1
s(I39
I16
I6
tp4834
I3
s(I35
I111
I9
tp4835
I228
s(I37
I0
I3
tp4836
I17
s(I21
I124
I0
tp4837
I38
s(I11
I89
I0
tp4838
I43
s(I14
I84
I3
tp4839
I43
s(I18
I0
I5
tp4840
I1
s(I62
I9
I8
tp4841
I1
s(I11
I122
I9
tp4842
I2
s(I43
I95
I5
tp4843
I5
s(I57
I125
I9
tp4844
I1590
s(I38
I118
I0
tp4845
I1666
s(I28
I29
I0
tp4846
I2
s(I27
I113
I6
tp4847
I10
s(I36
I9
I3
tp4848
I1
s(I30
I114
I9
tp4849
I18
s(I42
I6
I2
tp4850
I1
s(I45
I0
I5
tp4851
I13
s(I30
I81
I0
tp4852
I26
s(I20
I108
I0
tp4853
I923
s(I53
I31
I9
tp4854
I2
s(I16
I4
I6
tp4855
I1
s(I38
I21
I5
tp4856
I1
s(I38
I114
I5
tp4857
I7
s(I37
I14
I6
tp4858
I4
s(I18
I117
I9
tp4859
I976
s(I64
I127
I0
tp4860
I198
s(I32
I2
I9
tp4861
I1
s(I56
I117
I8
tp4862
I3
s(I47
I17
I0
tp4863
I29
s(I59
I13
I9
tp4864
I2144
s(I2
I105
I9
tp4865
I40
s(I56
I14
I0
tp4866
I5
s(I11
I21
I9
tp4867
I23
s(I39
I22
I0
tp4868
I13
s(I29
I127
I0
tp4869
I1
s(I7
I92
I6
tp4870
I1
s(I38
I17
I8
tp4871
I1
s(I19
I97
I6
tp4872
I3
s(I18
I92
I6
tp4873
I2
s(I9
I109
I8
tp4874
I6
s(I62
I126
I8
tp4875
I3
s(I24
I93
I6
tp4876
I202
s(I36
I122
I9
tp4877
I1
s(I54
I96
I0
tp4878
I1
s(I25
I30
I0
tp4879
I1
s(I43
I114
I5
tp4880
I224
s(I61
I125
I8
tp4881
I28
s(I61
I0
I9
tp4882
I2173
s(I26
I112
I0
tp4883
I10
s(I3
I4
I2
tp4884
I4
s(I17
I15
I0
tp4885
I14
s(I51
I113
I0
tp4886
I25
s(I41
I38
I0
tp4887
I3
s(I38
I112
I2
tp4888
I2
s(I47
I118
I2
tp4889
I2
s(I36
I15
I5
tp4890
I4
s(I42
I24
I0
tp4891
I8
s(I32
I4
I2
tp4892
I4
s(I63
I113
I6
tp4893
I64
s(I50
I4
I5
tp4894
I5
s(I21
I109
I0
tp4895
I1063
s(I53
I14
I2
tp4896
I742
s(I43
I126
I0
tp4897
I1421
s(I8
I123
I8
tp4898
I1
s(I20
I98
I2
tp4899
I1659
s(I35
I116
I8
tp4900
I3
s(I19
I114
I3
tp4901
I4
s(I61
I110
I2
tp4902
I1
s(I11
I4
I0
tp4903
I8
s(I17
I108
I5
tp4904
I2
s(I29
I125
I9
tp4905
I2
s(I29
I4
I5
tp4906
I2
s(I25
I96
I0
tp4907
I554
s(I37
I0
I8
tp4908
I3
s(I51
I94
I0
tp4909
I53
s(I19
I122
I9
tp4910
I8
s(I6
I112
I3
tp4911
I2030
s(I61
I30
I0
tp4912
I16
s(I37
I103
I6
tp4913
I1
s(I36
I116
I9
tp4914
I1316
s(I57
I125
I0
tp4915
I477
s(I19
I4
I6
tp4916
I1
s(I24
I91
I0
tp4917
I409
s(I42
I97
I9
tp4918
I640
s(I5
I104
I8
tp4919
I195
s(I62
I31
I3
tp4920
I3
s(I2
I111
I6
tp4921
I1
s(I30
I107
I8
tp4922
I5
s(I45
I103
I2
tp4923
I8
s(I59
I121
I6
tp4924
I301
s(I19
I91
I9
tp4925
I2
s(I21
I116
I3
tp4926
I54
s(I64
I127
I9
tp4927
I45
s(I64
I101
I8
tp4928
I52
s(I32
I2
I0
tp4929
I846
s(I63
I28
I6
tp4930
I2
s(I47
I15
I8
tp4931
I2
s(I24
I97
I6
tp4932
I4
s(I52
I106
I6
tp4933
I3
s(I39
I117
I0
tp4934
I45
s(I57
I7
I0
tp4935
I31
s(I14
I115
I3
tp4936
I48
s(I35
I109
I6
tp4937
I1447
s(I18
I121
I5
tp4938
I1
s(I36
I1
I2
tp4939
I17
s(I36
I122
I0
tp4940
I18
s(I32
I14
I5
tp4941
I1
s(I60
I122
I2
tp4942
I64
s(I3
I90
I0
tp4943
I120
s(I30
I105
I3
tp4944
I1
s(I61
I103
I0
tp4945
I21
s(I48
I6
I3
tp4946
I11
s(I51
I12
I0
tp4947
I13
s(I26
I106
I8
tp4948
I18
s(I59
I16
I3
tp4949
I7
s(I18
I20
I0
tp4950
I4
s(I64
I30
I9
tp4951
I45
s(I23
I102
I5
tp4952
I124
s(I29
I10
I2
tp4953
I2
s(I41
I38
I9
tp4954
I1
s(I53
I120
I0
tp4955
I1012
s(I43
I29
I0
tp4956
I23
s(I30
I12
I2
tp4957
I1
s(I44
I1
I0
tp4958
I9
s(I54
I5
I8
tp4959
I1
s(I43
I126
I9
tp4960
I1712
s(I18
I88
I3
tp4961
I1
s(I52
I13
I3
tp4962
I1
s(I30
I101
I6
tp4963
I251
s(I11
I111
I9
tp4964
I8
s(I48
I124
I9
tp4965
I440
s(I10
I82
I5
tp4966
I1
s(I57
I123
I3
tp4967
I7
s(I34
I89
I3
tp4968
I5
s(I63
I18
I8
tp4969
I44
s(I38
I101
I2
tp4970
I2
s(I20
I102
I6
tp4971
I2
s(I39
I34
I0
tp4972
I5
s(I2
I3
I9
tp4973
I6
s(I39
I98
I6
tp4974
I295
s(I44
I127
I0
tp4975
I1443
s(I50
I113
I9
tp4976
I998
s(I15
I100
I3
tp4977
I1
s(I27
I103
I5
tp4978
I3
s(I45
I10
I6
tp4979
I5
s(I1
I123
I6
tp4980
I16
s(I16
I119
I0
tp4981
I3977
s(I38
I97
I9
tp4982
I16
s(I52
I108
I5
tp4983
I1
s(I54
I16
I3
tp4984
I371
s(I25
I88
I5
tp4985
I1
s(I43
I91
I8
tp4986
I2
s(I33
I108
I8
tp4987
I2
s(I8
I22
I0
tp4988
I1
s(I14
I105
I0
tp4989
I30
s(I16
I10
I5
tp4990
I92
s(I19
I0
I2
tp4991
I7
s(I19
I91
I0
tp4992
I509
s(I62
I116
I6
tp4993
I15
s(I27
I125
I9
tp4994
I3
s(I33
I11
I0
tp4995
I202
s(I6
I120
I0
tp4996
I427
s(I34
I23
I0
tp4997
I2
s(I45
I107
I6
tp4998
I1
s(I51
I6
I5
tp4999
I2
s(I63
I110
I5
tp5000
I1
s(I25
I84
I0
tp5001
I48
s(I28
I115
I5
tp5002
I2
s(I12
I13
I2
tp5003
I1
s(I36
I95
I0
tp5004
I34
s(I45
I110
I6
tp5005
I1
s(I23
I104
I2
tp5006
I1
s(I19
I87
I5
tp5007
I1
s(I3
I121
I0
tp5008
I681
s(I27
I0
I0
tp5009
I6
s(I35
I4
I3
tp5010
I12
s(I25
I121
I5
tp5011
I2
s(I44
I11
I5
tp5012
I5
s(I53
I4
I8
tp5013
I4
s(I28
I110
I0
tp5014
I6
s(I62
I23
I2
tp5015
I1
s(I15
I121
I6
tp5016
I6
s(I52
I110
I2
tp5017
I13
s(I8
I117
I6
tp5018
I280
s(I45
I111
I3
tp5019
I1
s(I63
I98
I0
tp5020
I184
s(I6
I0
I2
tp5021
I2
s(I24
I118
I2
tp5022
I10
s(I55
I120
I8
tp5023
I33
s(I9
I124
I9
tp5024
I18
s(I21
I108
I2
tp5025
I27
s(I43
I3
I2
tp5026
I1
s(I36
I5
I6
tp5027
I9
s(I60
I126
I6
tp5028
I15
s(I12
I108
I0
tp5029
I74
s(I15
I125
I3
tp5030
I14
s(I20
I88
I5
tp5031
I1
s(I42
I11
I9
tp5032
I2
s(I56
I124
I9
tp5033
I1586
s(I37
I125
I0
tp5034
I627
s(I33
I80
I9
tp5035
I391
s(I14
I0
I0
tp5036
I316
s(I23
I106
I9
tp5037
I1
s(I29
I14
I6
tp5038
I1
s(I7
I114
I5
tp5039
I1914
s(I39
I94
I6
tp5040
I2
s(I39
I1
I0
tp5041
I198
s(I60
I98
I3
tp5042
I10
s(I38
I6
I8
tp5043
I6
s(I24
I21
I0
tp5044
I10
s(I30
I97
I2
tp5045
I334
s(I48
I14
I0
tp5046
I67
s(I54
I113
I0
tp5047
I62
s(I37
I113
I5
tp5048
I8
s(I2
I3
I2
tp5049
I4
s(I11
I113
I6
tp5050
I11
s(I44
I127
I9
tp5051
I2
s(I19
I85
I3
tp5052
I2
s(I53
I112
I3
tp5053
I4
s(I18
I123
I8
tp5054
I8
s(I62
I114
I5
tp5055
I64
s(I30
I4
I3
tp5056
I4
s(I17
I87
I6
tp5057
I2
s(I64
I111
I2
tp5058
I320
s(I35
I2
I5
tp5059
I2
s(I27
I114
I3
tp5060
I8
s(I25
I18
I3
tp5061
I1
s(I47
I1
I2
tp5062
I2
s(I8
I115
I0
tp5063
I4325
s(I30
I125
I9
tp5064
I1
s(I41
I12
I8
tp5065
I8
s(I56
I126
I6
tp5066
I10
s(I42
I85
I0
tp5067
I53
s(I59
I111
I5
tp5068
I305
s(I43
I97
I0
tp5069
I3
s(I8
I108
I8
tp5070
I4
s(I39
I102
I2
tp5071
I1
s(I29
I111
I2
tp5072
I171
s(I10
I3
I0
tp5073
I4
s(I28
I15
I5
tp5074
I1
s(I28
I80
I5
tp5075
I6
s(I62
I116
I9
tp5076
I1
s(I5
I108
I5
tp5077
I6
s(I42
I20
I5
tp5078
I2
s(I45
I14
I2
tp5079
I4
s(I25
I119
I0
tp5080
I46
s(I12
I114
I2
tp5081
I2509
s(I34
I1
I8
tp5082
I4
s(I46
I8
I2
tp5083
I7
s(I48
I0
I9
tp5084
I1369
s(I26
I96
I6
tp5085
I3
s(I38
I91
I8
tp5086
I2
s(I46
I126
I8
tp5087
I1
s(I17
I112
I0
tp5088
I69
s(I35
I99
I5
tp5089
I54
s(I38
I27
I2
tp5090
I1
s(I0
I126
I5
tp5091
I3340
s(I62
I112
I2
tp5092
I12
s(I5
I96
I0
tp5093
I449
s(I43
I108
I6
tp5094
I2
s(I60
I7
I5
tp5095
I3
s(I16
I94
I3
tp5096
I2
s(I34
I96
I2
tp5097
I2
s(I61
I10
I3
tp5098
I1
s(I54
I24
I0
tp5099
I40
s(I63
I98
I9
tp5100
I1
s(I63
I120
I8
tp5101
I1
s(I47
I26
I5
tp5102
I2
s(I2
I124
I6
tp5103
I11
s(I55
I102
I0
tp5104
I32
s(I23
I108
I6
tp5105
I5
s(I57
I113
I5
tp5106
I1264
s(I19
I116
I8
tp5107
I14
s(I27
I78
I0
tp5108
I6
s(I62
I19
I6
tp5109
I44
s(I14
I93
I0
tp5110
I49
s(I28
I109
I8
tp5111
I1
s(I56
I124
I0
tp5112
I245
s(I24
I114
I6
tp5113
I44
s(I5
I1
I6
tp5114
I1
s(I70
I124
I3
tp5115
I1030
s(I57
I22
I0
tp5116
I2
s(I54
I125
I3
tp5117
I1095
s(I48
I107
I0
tp5118
I3
s(I16
I113
I6
tp5119
I2427
s(I7
I85
I2
tp5120
I2
s(I44
I106
I6
tp5121
I1
s(I47
I123
I5
tp5122
I9
s(I20
I92
I9
tp5123
I2
s(I48
I20
I8
tp5124
I3
s(I63
I122
I3
tp5125
I33
s(I56
I120
I5
tp5126
I598
s(I24
I110
I3
tp5127
I1
s(I52
I127
I9
tp5128
I447
s(I41
I111
I2
tp5129
I1
s(I17
I0
I8
tp5130
I1
s(I19
I21
I0
tp5131
I4
s(I47
I1
I9
tp5132
I3
s(I43
I12
I0
tp5133
I22
s(I63
I99
I8
tp5134
I7
s(I51
I0
I3
tp5135
I8
s(I25
I82
I6
tp5136
I26
s(I15
I86
I5
tp5137
I361
s(I43
I119
I8
tp5138
I10
s(I11
I125
I2
tp5139
I12
s(I45
I88
I0
tp5140
I53
s(I70
I4
I9
tp5141
I6
s(I35
I125
I0
tp5142
I8
s(I36
I17
I0
tp5143
I82
s(I23
I117
I0
tp5144
I388
s(I44
I13
I3
tp5145
I6
s(I25
I105
I8
tp5146
I231
s(I15
I115
I8
tp5147
I11
s(I57
I4
I0
tp5148
I287
s(I42
I84
I6
tp5149
I1
s(I45
I117
I5
tp5150
I6
s(I32
I17
I2
tp5151
I1
s(I32
I122
I0
tp5152
I2115
s(I56
I122
I2
tp5153
I199
s(I28
I121
I6
tp5154
I1
s(I2
I98
I5
tp5155
I3
s(I63
I36
I0
tp5156
I84
s(I37
I22
I3
tp5157
I1
s(I5
I96
I9
tp5158
I1
s(I30
I28
I0
tp5159
I8
s(I29
I1
I8
tp5160
I1
s(I44
I17
I6
tp5161
I1
s(I63
I95
I8
tp5162
I10
s(I12
I118
I6
tp5163
I21
s(I55
I5
I0
tp5164
I238
s(I26
I100
I2
tp5165
I4
s(I64
I10
I0
tp5166
I2301
s(I57
I12
I5
tp5167
I1
s(I47
I90
I0
tp5168
I1
s(I18
I7
I2
tp5169
I1
s(I64
I19
I8
tp5170
I1
s(I44
I108
I5
tp5171
I1
s(I34
I100
I6
tp5172
I14
s(I12
I122
I3
tp5173
I3
s(I46
I0
I3
tp5174
I8
s(I21
I125
I9
tp5175
I7
s(I41
I14
I3
tp5176
I6
s(I50
I1
I5
tp5177
I3
s(I6
I105
I0
tp5178
I1522
s(I9
I90
I8
tp5179
I46
s(I7
I120
I6
tp5180
I9
s(I41
I101
I5
tp5181
I1
s(I6
I86
I8
tp5182
I1
s(I17
I93
I8
tp5183
I514
s(I48
I113
I8
tp5184
I6
s(I38
I111
I8
tp5185
I7
s(I25
I107
I6
tp5186
I3
s(I34
I3
I3
tp5187
I5
s(I34
I104
I3
tp5188
I213
s(I43
I22
I5
tp5189
I1
s(I26
I82
I8
tp5190
I26
s(I42
I15
I6
tp5191
I3
s(I50
I5
I8
tp5192
I9
s(I34
I113
I9
tp5193
I2821
s(I24
I17
I2
tp5194
I1
s(I47
I101
I6
tp5195
I3
s(I55
I110
I3
tp5196
I5
s(I20
I117
I8
tp5197
I10
s(I59
I41
I5
tp5198
I6
s(I33
I123
I2
tp5199
I11
s(I17
I89
I5
tp5200
I1
s(I20
I14
I0
tp5201
I27
s(I10
I89
I0
tp5202
I46
s(I44
I110
I2
tp5203
I3
s(I63
I93
I6
tp5204
I56
s(I12
I116
I8
tp5205
I3
s(I37
I15
I3
tp5206
I3
s(I21
I123
I2
tp5207
I12
s(I42
I106
I5
tp5208
I1
s(I45
I123
I0
tp5209
I2
s(I16
I102
I2
tp5210
I3
s(I37
I117
I8
tp5211
I2
s(I12
I29
I0
tp5212
I2
s(I46
I116
I6
tp5213
I6
s(I70
I4
I0
tp5214
I1644
s(I45
I98
I8
tp5215
I2
s(I37
I108
I0
tp5216
I250
s(I29
I115
I0
tp5217
I7
s(I8
I5
I2
tp5218
I1
s(I14
I120
I2
tp5219
I5
s(I48
I115
I3
tp5220
I2
s(I23
I99
I8
tp5221
I3
s(I64
I21
I6
tp5222
I3
s(I12
I120
I5
tp5223
I16
s(I15
I105
I0
tp5224
I3
s(I27
I112
I8
tp5225
I6
s(I36
I10
I3
tp5226
I5
s(I36
I99
I3
tp5227
I10
s(I59
I107
I8
tp5228
I5
s(I24
I102
I0
tp5229
I33
s(I52
I18
I9
tp5230
I6
s(I7
I126
I0
tp5231
I950
s(I41
I103
I3
tp5232
I2
s(I9
I121
I5
tp5233
I5
s(I59
I114
I0
tp5234
I3
s(I24
I127
I8
tp5235
I1
s(I48
I127
I6
tp5236
I2
s(I16
I5
I0
tp5237
I26
s(I34
I5
I5
tp5238
I6
s(I34
I106
I5
tp5239
I1240
s(I24
I9
I3
tp5240
I2
s(I15
I109
I5
tp5241
I26
s(I42
I1
I8
tp5242
I3
s(I45
I121
I9
tp5243
I432
s(I47
I16
I6
tp5244
I5
s(I18
I81
I0
tp5245
I6
s(I0
I122
I8
tp5246
I20
s(I50
I125
I5
tp5247
I4
s(I26
I77
I9
tp5248
I2
s(I21
I102
I8
tp5249
I2
s(I17
I2
I3
tp5250
I1
s(I39
I17
I2
tp5251
I4
s(I44
I21
I2
tp5252
I5
s(I21
I125
I0
tp5253
I2179
s(I6
I105
I9
tp5254
I3
s(I59
I8
I0
tp5255
I32
s(I46
I118
I0
tp5256
I1491
s(I48
I10
I2
tp5257
I4
s(I60
I22
I0
tp5258
I218
s(I25
I93
I8
tp5259
I1659
s(I56
I11
I9
tp5260
I1767
s(I52
I92
I8
tp5261
I3
s(I38
I113
I0
tp5262
I51
s(I18
I112
I6
tp5263
I12
s(I21
I113
I5
tp5264
I6
s(I5
I95
I0
tp5265
I67
s(I42
I96
I0
tp5266
I2
s(I27
I83
I5
tp5267
I2
s(I46
I21
I5
tp5268
I3
s(I46
I114
I5
tp5269
I6
s(I20
I99
I0
tp5270
I89
s(I7
I124
I2
tp5271
I5
s(I57
I99
I6
tp5272
I1
s(I63
I107
I8
tp5273
I11
s(I59
I112
I2
tp5274
I1
s(I21
I7
I0
tp5275
I63
s(I54
I27
I2
tp5276
I1
s(I20
I4
I8
tp5277
I1
s(I25
I103
I2
tp5278
I2
s(I62
I125
I5
tp5279
I1
s(I64
I126
I0
tp5280
I2182
s(I45
I5
I8
tp5281
I3
s(I41
I6
I2
tp5282
I11
s(I47
I22
I0
tp5283
I412
s(I62
I0
I6
tp5284
I46
s(I39
I108
I8
tp5285
I5
s(I3
I9
I9
tp5286
I3
s(I9
I119
I0
tp5287
I69
s(I15
I12
I0
tp5288
I19
s(I33
I103
I6
tp5289
I1
s(I29
I96
I0
tp5290
I216
s(I57
I124
I2
tp5291
I3
s(I35
I125
I2
tp5292
I7
s(I25
I0
I8
tp5293
I8
s(I34
I11
I2
tp5294
I6
s(I9
I110
I8
tp5295
I2025
s(I46
I77
I9
tp5296
I24
s(I16
I98
I6
tp5297
I418
s(I25
I31
I0
tp5298
I5
s(I28
I103
I3
tp5299
I251
s(I3
I91
I9
tp5300
I706
s(I61
I126
I8
tp5301
I4
s(I57
I10
I3
tp5302
I1
s(I33
I99
I3
tp5303
I258
s(I64
I29
I6
tp5304
I2
s(I51
I110
I0
tp5305
I64
s(I44
I118
I3
tp5306
I2
s(I53
I121
I9
tp5307
I1571
s(I21
I115
I3
tp5308
I4
s(I16
I120
I8
tp5309
I12
s(I42
I27
I0
tp5310
I2
s(I16
I110
I3
tp5311
I3
s(I25
I124
I5
tp5312
I8
s(I44
I0
I9
tp5313
I1714
s(I14
I120
I9
tp5314
I2
s(I37
I100
I3
tp5315
I295
s(I11
I5
I0
tp5316
I87
s(I14
I112
I3
tp5317
I4382
s(I48
I123
I2
tp5318
I3
s(I23
I0
I9
tp5319
I1
s(I37
I1
I8
tp5320
I2
s(I43
I16
I3
tp5321
I10
s(I18
I118
I5
tp5322
I10
s(I30
I113
I5
tp5323
I12
s(I36
I2
I0
tp5324
I1983
s(I60
I123
I0
tp5325
I417
s(I47
I20
I2
tp5326
I1
s(I53
I3
I3
tp5327
I6
s(I52
I113
I8
tp5328
I2
s(I27
I93
I0
tp5329
I1
s(I38
I82
I0
tp5330
I6
s(I2
I115
I3
tp5331
I6
s(I38
I18
I6
tp5332
I1
s(I24
I1
I2
tp5333
I7
s(I24
I90
I0
tp5334
I3
s(I30
I13
I0
tp5335
I50
s(I5
I105
I8
tp5336
I3
s(I42
I122
I8
tp5337
I10
s(I16
I96
I8
tp5338
I18
s(I52
I14
I3
tp5339
I6
s(I55
I20
I0
tp5340
I1
s(I41
I97
I8
tp5341
I295
s(I48
I117
I8
tp5342
I7
s(I56
I7
I5
tp5343
I1026
s(I14
I118
I8
tp5344
I20
s(I17
I10
I2
tp5345
I1
s(I23
I101
I2
tp5346
I3
s(I7
I103
I5
tp5347
I19
s(I41
I88
I0
tp5348
I213
s(I18
I116
I2
tp5349
I5
s(I64
I100
I8
tp5350
I1
s(I32
I1
I0
tp5351
I49
s(I16
I108
I5
tp5352
I922
s(I19
I125
I0
tp5353
I12
s(I61
I15
I0
tp5354
I244
s(I43
I125
I6
tp5355
I9
s(I61
I100
I5
tp5356
I14
s(I39
I122
I0
tp5357
I261
s(I26
I105
I5
tp5358
I1
s(I57
I0
I0
tp5359
I95
s(I26
I89
I0
tp5360
I427
s(I2
I0
I9
tp5361
I2
s(I11
I106
I0
tp5362
I435
s(I29
I7
I9
tp5363
I1
s(I38
I16
I3
tp5364
I3
s(I38
I121
I3
tp5365
I6
s(I3
I96
I8
tp5366
I2
s(I27
I102
I9
tp5367
I36
s(I26
I20
I0
tp5368
I20
s(I38
I102
I9
tp5369
I1173
s(I3
I91
I0
tp5370
I6
s(I61
I116
I5
tp5371
I31
s(I43
I121
I3
tp5372
I3
s(I15
I126
I9
tp5373
I2
s(I61
I104
I0
tp5374
I1
s(I51
I13
I0
tp5375
I303
s(I26
I109
I8
tp5376
I6
s(I18
I23
I0
tp5377
I1
s(I17
I107
I6
tp5378
I922
s(I57
I120
I6
tp5379
I598
s(I35
I102
I5
tp5380
I10
s(I47
I119
I9
tp5381
I583
s(I26
I8
I5
tp5382
I1
s(I3
I87
I5
tp5383
I2
s(I8
I122
I3
tp5384
I10
s(I28
I123
I0
tp5385
I2616
s(I64
I89
I8
tp5386
I54
s(I10
I111
I8
tp5387
I8
s(I12
I14
I0
tp5388
I7
s(I24
I123
I5
tp5389
I10
s(I2
I121
I0
tp5390
I44
s(I46
I44
I0
tp5391
I1
s(I64
I25
I2
tp5392
I50
s(I55
I125
I6
tp5393
I5
s(I23
I0
I2
tp5394
I8
s(I29
I104
I3
tp5395
I2
s(I41
I90
I2
tp5396
I28
s(I37
I27
I0
tp5397
I12
s(I2
I94
I8
tp5398
I65
s(I60
I123
I9
tp5399
I2209
s(I38
I100
I6
tp5400
I2
s(I28
I111
I2
tp5401
I1
s(I62
I20
I0
tp5402
I308
s(I52
I111
I0
tp5403
I64
s(I57
I89
I0
tp5404
I29
s(I63
I109
I2
tp5405
I2
s(I24
I119
I0
tp5406
I4251
s(I7
I105
I0
tp5407
I205
s(I19
I5
I9
tp5408
I1
s(I44
I126
I0
tp5409
I5
s(I28
I10
I3
tp5410
I3
s(I28
I83
I3
tp5411
I378
s(I52
I29
I2
tp5412
I1
s(I17
I80
I9
tp5413
I2
s(I16
I118
I0
tp5414
I461
s(I50
I15
I2
tp5415
I1
s(I46
I15
I6
tp5416
I2
s(I42
I8
I9
tp5417
I8
s(I41
I123
I0
tp5418
I52
s(I37
I124
I2
tp5419
I1
s(I33
I109
I8
tp5420
I9
s(I14
I104
I0
tp5421
I1
s(I3
I122
I5
tp5422
I1
s(I53
I123
I6
tp5423
I8
s(I43
I24
I2
tp5424
I2
s(I33
I116
I0
tp5425
I1810
s(I39
I0
I6
tp5426
I2
s(I6
I123
I0
tp5427
I1
s(I3
I17
I0
tp5428
I2
s(I42
I93
I5
tp5429
I1
s(I57
I0
I9
tp5430
I2417
s(I35
I32
I0
tp5431
I2
s(I43
I1
I9
tp5432
I3
s(I2
I0
I0
tp5433
I495
s(I33
I105
I5
tp5434
I2
s(I11
I112
I8
tp5435
I8
s(I60
I94
I2
tp5436
I54
s(I44
I120
I9
tp5437
I429
s(I3
I118
I0
tp5438
I2030
s(I53
I127
I3
tp5439
I1
s(I62
I40
I9
tp5440
I5
s(I27
I1
I0
tp5441
I557
s(I38
I102
I0
tp5442
I8
s(I53
I5
I8
tp5443
I2
s(I52
I6
I0
tp5444
I236
s(I61
I104
I9
tp5445
I237
s(I42
I81
I0
tp5446
I215
s(I52
I31
I8
tp5447
I2
s(I55
I103
I9
tp5448
I1906
s(I20
I124
I0
tp5449
I2106
s(I23
I109
I3
tp5450
I17
s(I41
I113
I8
tp5451
I7
s(I44
I37
I0
tp5452
I1
s(I12
I80
I9
tp5453
I2
s(I30
I0
I6
tp5454
I7
s(I39
I91
I9
tp5455
I523
s(I60
I125
I6
tp5456
I11
s(I38
I5
I5
tp5457
I8
s(I38
I98
I5
tp5458
I295
s(I12
I115
I0
tp5459
I1747
s(I18
I101
I9
tp5460
I614
s(I46
I9
I0
tp5461
I1535
s(I61
I5
I6
tp5462
I14
s(I38
I88
I6
tp5463
I5
s(I47
I33
I0
tp5464
I4
s(I2
I121
I9
tp5465
I1199
s(I2
I99
I8
tp5466
I477
s(I17
I119
I2
tp5467
I12
s(I14
I3
I0
tp5468
I41
s(I38
I24
I0
tp5469
I49
s(I16
I90
I2
tp5470
I1
s(I56
I30
I0
tp5471
I6
s(I62
I113
I0
tp5472
I28
s(I5
I111
I2
tp5473
I55
s(I42
I112
I6
tp5474
I3
s(I1
I120
I8
tp5475
I16
s(I52
I10
I9
tp5476
I3
s(I54
I107
I8
tp5477
I1
s(I19
I113
I6
tp5478
I20
s(I62
I110
I8
tp5479
I2
s(I54
I112
I0
tp5480
I213
s(I7
I12
I0
tp5481
I3
s(I24
I119
I9
tp5482
I8
s(I28
I121
I8
tp5483
I4
s(I7
I119
I8
tp5484
I5
s(I50
I112
I2
tp5485
I1
s(I18
I122
I8
tp5486
I8
s(I18
I4
I9
tp5487
I1
s(I64
I110
I6
tp5488
I2
s(I45
I11
I9
tp5489
I6
s(I17
I114
I6
tp5490
I2
s(I41
I22
I0
tp5491
I16
s(I38
I96
I2
tp5492
I2
s(I37
I95
I2
tp5493
I1
s(I8
I114
I0
tp5494
I44
s(I42
I8
I0
tp5495
I1966
s(I54
I5
I9
tp5496
I1385
s(I63
I97
I6
tp5497
I55
s(I43
I110
I0
tp5498
I586
s(I32
I122
I3
tp5499
I6
s(I20
I114
I2
tp5500
I383
s(I35
I100
I8
tp5501
I14
s(I35
I23
I2
tp5502
I1
s(I42
I23
I3
tp5503
I1
s(I29
I77
I9
tp5504
I5
s(I25
I112
I0
tp5505
I1083
s(I47
I122
I9
tp5506
I2
s(I12
I113
I2
tp5507
I6
s(I46
I11
I2
tp5508
I1
s(I29
I84
I3
tp5509
I2
s(I36
I110
I6
tp5510
I9
s(I63
I101
I3
tp5511
I2
s(I6
I96
I3
tp5512
I36
s(I57
I118
I8
tp5513
I28
s(I3
I118
I9
tp5514
I4
s(I28
I91
I2
tp5515
I1
s(I62
I40
I0
tp5516
I46
s(I52
I91
I0
tp5517
I256
s(I45
I19
I3
tp5518
I5
s(I23
I112
I3
tp5519
I54
s(I11
I121
I6
tp5520
I4
s(I42
I81
I9
tp5521
I2
s(I61
I11
I5
tp5522
I90
s(I54
I27
I0
tp5523
I214
s(I62
I15
I3
tp5524
I10
s(I55
I103
I0
tp5525
I219
s(I17
I125
I5
tp5526
I7
s(I10
I0
I9
tp5527
I2
s(I12
I80
I0
tp5528
I38
s(I64
I108
I0
tp5529
I193
s(I32
I82
I6
tp5530
I2
s(I5
I123
I9
tp5531
I12
s(I19
I107
I9
tp5532
I922
s(I37
I81
I0
tp5533
I1
s(I46
I102
I9
tp5534
I643
s(I14
I92
I0
tp5535
I3
s(I64
I117
I8
tp5536
I66
s(I32
I18
I0
tp5537
I135
s(I10
I121
I9
tp5538
I331
s(I63
I12
I6
tp5539
I3
s(I56
I123
I0
tp5540
I440
s(I24
I113
I6
tp5541
I14
s(I52
I122
I6
tp5542
I6
s(I55
I107
I5
tp5543
I5
s(I39
I101
I0
tp5544
I1
s(I57
I23
I0
tp5545
I13
s(I62
I113
I9
tp5546
I252
s(I9
I120
I8
tp5547
I5
s(I5
I111
I9
tp5548
I2
s(I36
I113
I8
tp5549
I183
s(I64
I104
I5
tp5550
I8
s(I32
I94
I3
tp5551
I334
s(I41
I1
I2
tp5552
I5
s(I37
I12
I9
tp5553
I1
s(I36
I106
I0
tp5554
I55
s(I26
I101
I0
tp5555
I763
s(I32
I103
I9
tp5556
I14
s(I61
I119
I0
tp5557
I30
s(I51
I28
I0
tp5558
I24
s(I26
I122
I8
tp5559
I10
s(I57
I19
I5
tp5560
I12
s(I18
I4
I0
tp5561
I243
s(I33
I114
I6
tp5562
I142
s(I42
I116
I2
tp5563
I7
s(I23
I118
I5
tp5564
I14
s(I29
I26
I2
tp5565
I2
s(I19
I109
I2
tp5566
I2
s(I44
I22
I9
tp5567
I1
s(I12
I123
I3
tp5568
I10
s(I43
I13
I0
tp5569
I808
s(I30
I124
I2
tp5570
I1
s(I64
I119
I3
tp5571
I1
s(I6
I20
I0
tp5572
I1
s(I62
I9
I5
tp5573
I3
s(I43
I116
I8
tp5574
I1
s(I17
I127
I3
tp5575
I7
s(I35
I122
I0
tp5576
I898
s(I50
I116
I6
tp5577
I3
s(I3
I112
I6
tp5578
I4
s(I53
I117
I5
tp5579
I2
s(I12
I86
I2
tp5580
I43
s(I37
I109
I9
tp5581
I2009
s(I64
I106
I2
tp5582
I45
s(I48
I108
I9
tp5583
I502
s(I32
I80
I8
tp5584
I378
s(I23
I122
I0
tp5585
I3610
s(I25
I112
I9
tp5586
I6
s(I34
I0
I3
tp5587
I2
s(I34
I105
I3
tp5588
I5
s(I43
I9
I5
tp5589
I1
s(I55
I6
I5
tp5590
I1
s(I63
I2
I8
tp5591
I39
s(I20
I118
I6
tp5592
I13
s(I54
I95
I8
tp5593
I1
s(I57
I104
I0
tp5594
I1
s(I50
I120
I3
tp5595
I4
s(I32
I92
I5
tp5596
I1
s(I44
I111
I0
tp5597
I580
s(I30
I122
I5
tp5598
I3
s(I50
I97
I9
tp5599
I1884
s(I12
I117
I6
tp5600
I1
s(I27
I119
I5
tp5601
I3
s(I55
I10
I0
tp5602
I5
s(I43
I118
I3
tp5603
I7
s(I52
I124
I5
tp5604
I6
s(I47
I91
I0
tp5605
I53
s(I8
I6
I0
tp5606
I35
s(I36
I18
I9
tp5607
I1
s(I14
I121
I0
tp5608
I1232
s(I19
I107
I0
tp5609
I1
s(I62
I100
I6
tp5610
I7
s(I15
I104
I6
tp5611
I3
s(I33
I27
I0
tp5612
I11
s(I41
I15
I5
tp5613
I3
s(I37
I10
I2
tp5614
I5
s(I59
I9
I9
tp5615
I2152
s(I33
I91
I6
tp5616
I1
s(I57
I9
I8
tp5617
I742
s(I50
I118
I8
tp5618
I9
s(I9
I11
I0
tp5619
I7
s(I23
I120
I2
tp5620
I1
s(I29
I0
I3
tp5621
I4
s(I63
I94
I3
tp5622
I12
s(I19
I103
I5
tp5623
I2
s(I27
I16
I0
tp5624
I5
s(I26
I101
I9
tp5625
I125
s(I12
I25
I3
tp5626
I1
s(I50
I31
I0
tp5627
I3
s(I53
I20
I8
tp5628
I3
s(I6
I116
I5
tp5629
I1
s(I62
I7
I2
tp5630
I11
s(I52
I126
I2
tp5631
I69
s(I50
I122
I5
tp5632
I7
s(I53
I107
I0
tp5633
I1
s(I46
I120
I3
tp5634
I1
s(I43
I40
I0
tp5635
I2
s(I20
I13
I0
tp5636
I2
s(I44
I22
I0
tp5637
I212
s(I37
I0
I5
tp5638
I1
s(I46
I1
I8
tp5639
I3
s(I21
I124
I2
tp5640
I32
s(I11
I89
I2
tp5641
I2
s(I45
I124
I0
tp5642
I2262
s(I35
I89
I0
tp5643
I2
s(I63
I127
I5
tp5644
I3
s(I56
I115
I3
tp5645
I1264
s(I37
I118
I8
tp5646
I10
s(I20
I104
I5
tp5647
I4
s(I70
I7
I0
tp5648
I2
s(I23
I89
I0
tp5649
I1
s(I47
I89
I6
tp5650
I3
s(I37
I109
I0
tp5651
I14
s(I52
I93
I6
tp5652
I1
s(I33
I96
I9
tp5653
I388
s(I14
I123
I2
tp5654
I3
s(I26
I4
I9
tp5655
I1
s(I23
I122
I9
tp5656
I7
s(I29
I97
I9
tp5657
I8
s(I7
I98
I5
tp5658
I1
s(I38
I9
I0
tp5659
I796
s(I14
I127
I3
tp5660
I2
s(I34
I105
I8
tp5661
I1
s(I15
I110
I0
tp5662
I73
s(I30
I120
I6
tp5663
I1
s(I60
I114
I3
tp5664
I4
s(I63
I24
I0
tp5665
I301
s(I28
I120
I9
tp5666
I2
s(I62
I5
I9
tp5667
I2139
s(I57
I11
I6
tp5668
I8
s(I37
I97
I5
tp5669
I10
s(I10
I20
I0
tp5670
I60
s(I26
I81
I0
tp5671
I1
s(I44
I111
I9
tp5672
I3
s(I19
I101
I3
tp5673
I1
s(I18
I107
I8
tp5674
I922
s(I62
I98
I5
tp5675
I55
s(I55
I10
I9
tp5676
I1761
s(I30
I116
I3
tp5677
I48
s(I64
I127
I2
tp5678
I298
s(I50
I6
I6
tp5679
I1
s(I8
I99
I0
tp5680
I497
s(I35
I114
I3
tp5681
I1
s(I24
I103
I5
tp5682
I36
s(I9
I118
I6
tp5683
I1
s(I59
I127
I5
tp5684
I4
s(I29
I127
I2
tp5685
I6
s(I34
I8
I0
tp5686
I507
s(I42
I4
I5
tp5687
I2
s(I48
I29
I6
tp5688
I1
s(I59
I9
I0
tp5689
I205
s(I46
I113
I0
tp5690
I25
s(I17
I121
I8
tp5691
I21
s(I26
I112
I6
tp5692
I6
s(I7
I121
I9
tp5693
I1
s(I60
I21
I0
tp5694
I12
s(I3
I4
I0
tp5695
I18
s(I21
I4
I5
tp5696
I1
s(I17
I96
I0
tp5697
I52
s(I15
I101
I3
tp5698
I1
s(I38
I11
I2
tp5699
I10
s(I44
I119
I3
tp5700
I4
s(I28
I3
I0
tp5701
I483
s(I34
I85
I9
tp5702
I254
s(I18
I115
I6
tp5703
I1
s(I27
I6
I8
tp5704
I2
s(I60
I112
I5
tp5705
I8
s(I63
I113
I0
tp5706
I94
s(I53
I14
I0
tp5707
I1
s(I34
I112
I2
tp5708
I5
s(I15
I21
I0
tp5709
I5
s(I55
I118
I0
tp5710
I547
s(I45
I31
I0
tp5711
I11
s(I23
I124
I6
tp5712
I7
s(I17
I127
I6
tp5713
I6
s(I30
I118
I5
tp5714
I1648
s(I45
I124
I9
tp5715
I6
s(I62
I3
I6
tp5716
I38
s(I48
I95
I3
tp5717
I3
s(I0
I0
I8
tp5718
I1
s(I27
I118
I3
tp5719
I3
s(I9
I112
I0
tp5720
I1086
s(I59
I125
I3
tp5721
I16
s(I15
I13
I0
tp5722
I1
s(I2
I112
I3
tp5723
I22
s(I5
I113
I6
tp5724
I40
s(I48
I120
I9
tp5725
I587
s(I29
I97
I0
tp5726
I1466
s(I38
I9
I9
tp5727
I2
s(I11
I90
I0
tp5728
I3
s(I24
I2
I0
tp5729
I211
s(I55
I12
I6
tp5730
I6
s(I36
I120
I9
tp5731
I1670
s(I16
I97
I6
tp5732
I249
s(I63
I115
I9
tp5733
I2268
s(I59
I94
I0
tp5734
I32
s(I20
I108
I9
tp5735
I1
s(I48
I4
I8
tp5736
I6
s(I63
I106
I3
tp5737
I6
s(I24
I126
I3
tp5738
I8
s(I26
I81
I9
tp5739
I2
s(I28
I1
I2
tp5740
I6
s(I18
I117
I0
tp5741
I3251
s(I33
I1
I6
tp5742
I2
s(I1
I125
I5
tp5743
I2
s(I8
I99
I9
tp5744
I3
s(I39
I117
I2
tp5745
I18
s(I26
I118
I5
tp5746
I5
s(I57
I7
I2
tp5747
I4
s(I27
I105
I2
tp5748
I251
s(I53
I103
I6
tp5749
I3
s(I21
I81
I0
tp5750
I46
s(I11
I109
I2
tp5751
I4
s(I36
I1
I0
tp5752
I6
s(I42
I121
I5
tp5753
I3
s(I54
I9
I5
tp5754
I21
s(I60
I122
I0
tp5755
I7
s(I25
I121
I8
tp5756
I12
s(I46
I113
I9
tp5757
I224
s(I27
I90
I0
tp5758
I51
s(I46
I107
I8
tp5759
I1
s(I61
I0
I0
tp5760
I470
s(I45
I101
I5
tp5761
I2
s(I29
I95
I6
tp5762
I4
s(I60
I3
I8
tp5763
I67
s(I56
I10
I2
tp5764
I8
s(I15
I3
I2
tp5765
I2
s(I15
I90
I0
tp5766
I15
s(I5
I115
I0
tp5767
I20
s(I29
I99
I6
tp5768
I6
s(I29
I10
I0
tp5769
I3
s(I38
I86
I9
tp5770
I2042
s(I37
I6
I3
tp5771
I2
s(I30
I12
I0
tp5772
I24
s(I48
I25
I2
tp5773
I2
s(I29
I17
I8
tp5774
I1
s(I44
I1
I6
tp5775
I11
s(I47
I9
I3
tp5776
I8
s(I55
I21
I0
tp5777
I220
s(I42
I88
I3
tp5778
I28
s(I26
I116
I2
tp5779
I8
s(I14
I113
I8
tp5780
I3
s(I64
I26
I0
tp5781
I157
s(I51
I109
I6
tp5782
I2
s(I57
I28
I5
tp5783
I1
s(I16
I8
I6
tp5784
I1
s(I47
I106
I0
tp5785
I12
s(I53
I124
I9
tp5786
I4
s(I1
I127
I3
tp5787
I4
s(I32
I0
I0
tp5788
I1
s(I19
I122
I0
tp5789
I2033
s(I34
I116
I6
tp5790
I8
s(I12
I106
I3
tp5791
I1
s(I37
I90
I8
tp5792
I53
s(I46
I105
I3
tp5793
I1
s(I39
I123
I0
tp5794
I1395
s(I9
I112
I9
tp5795
I12
s(I6
I89
I0
tp5796
I45
s(I5
I5
I2
tp5797
I4
s(I21
I83
I6
tp5798
I2
s(I11
I0
I2
tp5799
I3
s(I11
I107
I0
tp5800
I58
s(I48
I120
I0
tp5801
I1681
s(I51
I105
I3
tp5802
I3
s(I7
I104
I6
tp5803
I4
s(I39
I107
I9
tp5804
I1521
s(I62
I120
I3
tp5805
I2
s(I33
I15
I5
tp5806
I1
s(I17
I77
I8
tp5807
I43
s(I48
I97
I8
tp5808
I6
s(I10
I117
I5
tp5809
I3
s(I50
I12
I0
tp5810
I492
s(I34
I120
I3
tp5811
I8
s(I43
I6
I5
tp5812
I3
s(I61
I2
I2
tp5813
I3
s(I28
I79
I0
tp5814
I26
s(I55
I126
I3
tp5815
I4
s(I11
I119
I5
tp5816
I20
s(I19
I0
I0
tp5817
I7
s(I36
I124
I5
tp5818
I11
s(I59
I106
I8
tp5819
I7
s(I32
I107
I5
tp5820
I170
s(I35
I8
I6
tp5821
I1
s(I16
I115
I9
tp5822
I11
s(I50
I16
I5
tp5823
I1
s(I46
I22
I8
tp5824
I1
s(I43
I2
I8
tp5825
I3
s(I46
I8
I9
tp5826
I1
s(I37
I101
I8
tp5827
I10
s(I60
I95
I0
tp5828
I32
s(I47
I30
I5
tp5829
I1
s(I3
I121
I2
tp5830
I30
s(I27
I121
I0
tp5831
I1529
s(I5
I86
I6
tp5832
I1
s(I23
I115
I8
tp5833
I10
s(I34
I118
I8
tp5834
I3
s(I62
I23
I0
tp5835
I6
s(I15
I121
I0
tp5836
I291
s(I52
I110
I0
tp5837
I1
s(I61
I103
I9
tp5838
I5
s(I39
I121
I6
tp5839
I3
s(I62
I2
I6
tp5840
I1
s(I41
I120
I5
tp5841
I10
s(I6
I0
I0
tp5842
I182
s(I38
I104
I6
tp5843
I4
s(I24
I118
I0
tp5844
I42
s(I7
I110
I0
tp5845
I946
s(I14
I85
I0
tp5846
I63
s(I36
I126
I2
tp5847
I6
s(I63
I20
I3
tp5848
I2
s(I34
I122
I5
tp5849
I11
s(I15
I125
I5
tp5850
I1
s(I55
I3
I8
tp5851
I4
s(I45
I105
I9
tp5852
I500
s(I51
I8
I2
tp5853
I4
s(I29
I81
I5
tp5854
I378
s(I41
I116
I0
tp5855
I1943
s(I9
I14
I0
tp5856
I1
s(I21
I118
I8
tp5857
I13
s(I17
I96
I9
tp5858
I19
s(I39
I94
I0
tp5859
I28
s(I39
I1
I2
tp5860
I9
s(I54
I104
I6
tp5861
I9
s(I35
I6
I8
tp5862
I1
s(I44
I5
I2
tp5863
I13
s(I35
I33
I0
tp5864
I2
s(I56
I2
I3
tp5865
I21
s(I59
I24
I0
tp5866
I13
s(I2
I3
I0
tp5867
I39
s(I17
I104
I8
tp5868
I9
s(I20
I127
I5
tp5869
I1
s(I35
I97
I6
tp5870
I258
s(I50
I113
I0
tp5871
I615
s(I3
I119
I0
tp5872
I1
s(I8
I90
I6
tp5873
I46
s(I25
I119
I6
tp5874
I32
s(I38
I97
I0
tp5875
I33
s(I28
I108
I0
tp5876
I467
s(I52
I5
I0
tp5877
I28
s(I60
I1
I3
tp5878
I47
s(I28
I117
I8
tp5879
I5
s(I20
I115
I0
tp5880
I2295
s(I25
I107
I2
tp5881
I3
s(I27
I78
I9
tp5882
I23
s(I21
I23
I0
tp5883
I4
s(I8
I86
I3
tp5884
I1
s(I45
I14
I0
tp5885
I1
s(I29
I19
I5
tp5886
I1
s(I25
I119
I2
tp5887
I8
s(I6
I120
I9
tp5888
I2
s(I12
I114
I0
tp5889
I6
s(I46
I8
I0
tp5890
I855
s(I61
I6
I6
tp5891
I5
s(I45
I117
I8
tp5892
I1
s(I41
I118
I2
tp5893
I224
s(I63
I13
I3
tp5894
I28
s(I56
I4
I8
tp5895
I3
s(I37
I127
I0
tp5896
I2
s(I2
I98
I8
tp5897
I69
s(I34
I91
I8
tp5898
I1
s(I9
I103
I0
tp5899
I25
s(I62
I112
I0
tp5900
I1
s(I33
I119
I6
tp5901
I6
s(I42
I115
I6
tp5902
I1
s(I1
I121
I8
tp5903
I1199
s(I29
I112
I0
tp5904
I877
s(I16
I127
I5
tp5905
I9
s(I34
I96
I0
tp5906
I5
s(I46
I93
I9
tp5907
I28
s(I7
I13
I0
tp5908
I8
s(I28
I119
I3
tp5909
I11
s(I59
I97
I0
tp5910
I54
s(I24
I108
I8
tp5911
I5
s(I51
I103
I8
tp5912
I1
s(I29
I109
I5
tp5913
I215
s(I7
I110
I9
tp5914
I64
s(I51
I29
I9
tp5915
I1
s(I16
I18
I0
tp5916
I4
s(I3
I117
I6
tp5917
I11
s(I27
I12
I2
tp5918
I4
s(I33
I115
I3
tp5919
I183
s(I51
I126
I0
tp5920
I2011
s(I41
I23
I0
tp5921
I8
s(I44
I102
I3
tp5922
I1
s(I42
I11
I0
tp5923
I32
s(I29
I127
I6
tp5924
I2
s(I41
I116
I9
tp5925
I427
s(I10
I102
I9
tp5926
I19
s(I46
I9
I5
tp5927
I1
s(I14
I0
I9
tp5928
I1
s(I57
I22
I6
tp5929
I1
s(I62
I118
I9
tp5930
I2204
s(I2
I95
I8
tp5931
I444
s(I21
I96
I0
tp5932
I1
s(I48
I107
I2
tp5933
I3
s(I35
I28
I0
tp5934
I1
s(I26
I26
I0
tp5935
I1
s(I43
I0
I3
tp5936
I3
s(I61
I8
I8
tp5937
I5
s(I45
I119
I6
tp5938
I6
s(I63
I122
I5
tp5939
I1
s(I47
I36
I2
tp5940
I3
s(I9
I92
I9
tp5941
I3
s(I51
I31
I6
tp5942
I2
s(I57
I105
I9
tp5943
I1927
s(I0
I5
I9
tp5944
I4
s(I28
I90
I6
tp5945
I2
s(I42
I117
I0
tp5946
I1976
s(I25
I109
I5
tp5947
I1
s(I43
I12
I6
tp5948
I4
s(I15
I117
I6
tp5949
I7
s(I30
I125
I0
tp5950
I374
s(I42
I106
I8
tp5951
I3
s(I20
I115
I9
tp5952
I6
s(I20
I105
I8
tp5953
I1
s(I41
I81
I8
tp5954
I2
s(I63
I32
I3
tp5955
I2
s(I56
I23
I5
tp5956
I1
s(I64
I107
I0
tp5957
I38
s(I39
I9
I3
tp5958
I10
s(I23
I117
I2
tp5959
I6
s(I7
I87
I5
tp5960
I12
s(I41
I17
I2
tp5961
I1
s(I56
I97
I8
tp5962
I2
s(I47
I5
I0
tp5963
I270
s(I15
I113
I0
tp5964
I116
s(I46
I2
I8
tp5965
I8
s(I20
I84
I5
tp5966
I2
s(I35
I86
I0
tp5967
I26
s(I32
I17
I0
tp5968
I35
s(I16
I92
I5
tp5969
I2
s(I35
I110
I9
tp5970
I25
s(I43
I109
I6
tp5971
I3
s(I60
I20
I6
tp5972
I1
s(I52
I121
I6
tp5973
I1
s(I17
I88
I9
tp5974
I2
s(I39
I106
I0
tp5975
I3
s(I26
I121
I5
tp5976
I8
s(I10
I7
I2
tp5977
I2
s(I11
I17
I0
tp5978
I6
s(I0
I126
I2
tp5979
I3685
s(I9
I121
I8
tp5980
I331
s(I38
I0
I3
tp5981
I10
s(I38
I105
I3
tp5982
I1
s(I25
I10
I0
tp5983
I14
s(I29
I123
I6
tp5984
I4
s(I27
I118
I9
tp5985
I44
s(I64
I33
I6
tp5986
I1
s(I55
I5
I2
tp5987
I20
s(I42
I1
I5
tp5988
I1
s(I51
I2
I8
tp5989
I13
s(I41
I114
I6
tp5990
I7
s(I61
I17
I2
tp5991
I4
s(I61
I120
I0
tp5992
I2
s(I20
I107
I3
tp5993
I2
s(I51
I29
I0
tp5994
I192
s(I26
I125
I8
tp5995
I3
s(I53
I114
I8
tp5996
I2
s(I18
I7
I0
tp5997
I9
s(I17
I91
I6
tp5998
I2
s(I26
I3
I3
tp5999
I1
s(I44
I15
I8
tp6000
I3
s(I25
I111
I3
tp6001
I2
s(I30
I127
I2
tp6002
I1
s(I10
I102
I0
tp6003
I6
s(I11
I16
I0
tp6004
I2
s(I52
I11
I5
tp6005
I1
s(I50
I119
I6
tp6006
I3
s(I28
I92
I5
tp6007
I5
s(I39
I12
I6
tp6008
I9
s(I21
I90
I8
tp6009
I1
s(I5
I120
I5
tp6010
I5
s(I29
I120
I3
tp6011
I1648
s(I37
I11
I0
tp6012
I40
s(I6
I117
I9
tp6013
I10
s(I62
I4
I0
tp6014
I519
s(I52
I127
I0
tp6015
I2014
s(I19
I103
I0
tp6016
I631
s(I57
I105
I0
tp6017
I251
s(I35
I119
I5
tp6018
I10
s(I44
I127
I3
tp6019
I1
s(I9
I123
I6
tp6020
I2
s(I42
I117
I9
tp6021
I433
s(I5
I124
I8
tp6022
I1
s(I7
I89
I0
tp6023
I1
s(I19
I21
I9
tp6024
I1
s(I14
I85
I5
tp6025
I2
s(I45
I123
I2
tp6026
I9
s(I28
I99
I9
tp6027
I1
s(I2
I104
I6
tp6028
I3
s(I61
I122
I2
tp6029
I2
s(I57
I101
I5
tp6030
I2
s(I41
I107
I0
tp6031
I2
s(I37
I108
I2
tp6032
I1
s(I21
I88
I3
tp6033
I166
s(I8
I5
I0
tp6034
I8
s(I64
I107
I9
tp6035
I10
s(I14
I120
I0
tp6036
I934
s(I60
I106
I9
tp6037
I7
s(I56
I87
I0
tp6038
I29
s(I43
I8
I2
tp6039
I16
s(I15
I105
I2
tp6040
I1
s(I15
I78
I5
tp6041
I43
s(I10
I120
I2
tp6042
I11
s(I32
I7
I8
tp6043
I4
s(I24
I102
I6
tp6044
I116
s(I36
I85
I8
tp6045
I1428
s(I11
I121
I0
tp6046
I2428
s(I39
I112
I8
tp6047
I8
s(I9
I2
I3
tp6048
I1
s(I2
I16
I0
tp6049
I1
s(I33
I121
I5
tp6050
I2
s(I36
I21
I2
tp6051
I3
s(I51
I120
I6
tp6052
I1
s(I60
I110
I2
tp6053
I59
s(I44
I104
I9
tp6054
I499
s(I3
I102
I0
tp6055
I76
s(I27
I17
I0
tp6056
I32
s(I55
I5
I9
tp6057
I1
s(I30
I117
I3
tp6058
I410
s(I48
I18
I3
tp6059
I1
s(I32
I102
I2
tp6060
I258
s(I59
I12
I3
tp6061
I161
s(I62
I6
I6
tp6062
I1
s(I52
I22
I0
tp6063
I25
s(I64
I10
I9
tp6064
I46
s(I61
I120
I9
tp6065
I1442
s(I30
I82
I9
tp6066
I12
s(I35
I117
I3
tp6067
I6
s(I0
I122
I6
tp6068
I115
s(I53
I108
I0
tp6069
I55
s(I12
I95
I3
tp6070
I33
s(I55
I119
I9
tp6071
I1009
s(I23
I125
I3
tp6072
I10
s(I59
I23
I6
tp6073
I1
s(I23
I27
I0
tp6074
I1
s(I60
I13
I6
tp6075
I6
s(I12
I99
I0
tp6076
I2
s(I18
I85
I9
tp6077
I361
s(I64
I95
I0
tp6078
I30
s(I39
I114
I3
tp6079
I3
s(I23
I94
I0
tp6080
I562
s(I2
I115
I8
tp6081
I36
s(I17
I103
I2
tp6082
I4
s(I14
I19
I0
tp6083
I5
s(I38
I8
I0
tp6084
I55
s(I38
I113
I2
tp6085
I2
s(I62
I97
I0
tp6086
I42
s(I33
I6
I2
tp6087
I5
s(I5
I95
I2
tp6088
I46
s(I55
I13
I3
tp6089
I8
s(I42
I96
I6
tp6090
I3
s(I54
I123
I8
tp6091
I6
s(I54
I0
I6
tp6092
I1452
s(I63
I25
I0
tp6093
I151
s(I34
I113
I0
tp6094
I249
s(I61
I96
I3
tp6095
I56
s(I52
I15
I8
tp6096
I1
s(I7
I124
I0
tp6097
I1
s(I43
I82
I5
tp6098
I29
s(I21
I7
I2
tp6099
I1
s(I7
I103
I8
tp6100
I4
s(I18
I116
I9
tp6101
I4
s(I15
I8
I3
tp6102
I1
s(I64
I126
I6
tp6103
I3
s(I54
I12
I3
tp6104
I742
s(I41
I6
I0
tp6105
I66
s(I59
I10
I5
tp6106
I193
s(I8
I98
I0
tp6107
I23
s(I41
I125
I8
tp6108
I17
s(I56
I13
I6
tp6109
I371
s(I9
I119
I2
tp6110
I7
s(I43
I94
I0
tp6111
I56
s(I2
I113
I3
tp6112
I60
s(I33
I103
I0
tp6113
I7
s(I14
I114
I8
tp6114
I7
s(I29
I96
I2
tp6115
I1
s(I34
I11
I0
tp6116
I28
s(I21
I127
I0
tp6117
I1
s(I42
I7
I3
tp6118
I3
s(I29
I93
I9
tp6119
I5
s(I35
I15
I0
tp6120
I2
s(I47
I10
I9
tp6121
I5
s(I43
I115
I5
tp6122
I10
s(I2
I108
I2
tp6123
I4
s(I52
I119
I3
tp6124
I2
s(I70
I0
I2
tp6125
I8
s(I23
I92
I2
tp6126
I1
s(I60
I20
I0
tp6127
I1
s(I3
I5
I0
tp6128
I18
s(I6
I80
I3
tp6129
I35
s(I56
I114
I2
tp6130
I2
s(I35
I16
I3
tp6131
I4
s(I3
I102
I9
tp6132
I502
s(I28
I2
I0
tp6133
I77
s(I3
I124
I8
tp6134
I2
s(I36
I119
I5
tp6135
I2
s(I45
I3
I3
tp6136
I10
s(I54
I2
I8
tp6137
I1
s(I63
I118
I0
tp6138
I341
s(I53
I15
I0
tp6139
I1328
s(I61
I27
I5
tp6140
I90
s(I25
I102
I6
tp6141
I9
s(I5
I126
I3
tp6142
I4
s(I55
I119
I0
tp6143
I218
s(I17
I109
I5
tp6144
I1
s(I51
I106
I9
tp6145
I655
s(I16
I1
I2
tp6146
I7
s(I44
I19
I5
tp6147
I1
s(I47
I107
I9
tp6148
I502
s(I64
I124
I0
tp6149
I175
s(I42
I102
I5
tp6150
I2
s(I32
I98
I6
tp6151
I4
s(I19
I123
I9
tp6152
I8
s(I46
I118
I9
tp6153
I585
s(I64
I95
I9
tp6154
I10
s(I48
I7
I5
tp6155
I8
s(I10
I105
I9
tp6156
I2
s(I5
I114
I6
tp6157
I2571
s(I55
I123
I5
tp6158
I1095
s(I39
I21
I0
tp6159
I12
s(I3
I126
I3
tp6160
I8
s(I62
I123
I8
tp6161
I12
s(I36
I97
I8
tp6162
I258
s(I64
I120
I5
tp6163
I55
s(I48
I26
I0
tp6164
I212
s(I32
I5
I3
tp6165
I4
s(I54
I109
I0
tp6166
I55
s(I26
I117
I0
tp6167
I4195
s(I32
I119
I9
tp6168
I4
s(I17
I10
I0
tp6169
I2
s(I34
I86
I5
tp6170
I1428
s(I18
I116
I0
tp6171
I16
s(I33
I2
I6
tp6172
I2
s(I64
I126
I9
tp6173
I1
s(I42
I100
I2
tp6174
I5
s(I41
I6
I9
tp6175
I1
s(I19
I125
I2
tp6176
I17
s(I44
I6
I9
tp6177
I10
s(I53
I88
I0
tp6178
I32
s(I12
I107
I3
tp6179
I3
s(I43
I125
I0
tp6180
I24
s(I33
I7
I5
tp6181
I1
s(I39
I122
I2
tp6182
I5
s(I35
I115
I8
tp6183
I5
s(I57
I0
I2
tp6184
I12
s(I43
I94
I9
tp6185
I532
s(I43
I100
I8
tp6186
I1
s(I17
I111
I3
tp6187
I2
s(I64
I7
I9
tp6188
I1
s(I45
I34
I2
tp6189
I2
s(I35
I106
I0
tp6190
I394
s(I25
I99
I0
tp6191
I5
s(I46
I77
I0
tp6192
I6
s(I64
I122
I2
tp6193
I384
s(I36
I121
I6
tp6194
I1
s(I32
I96
I8
tp6195
I377
s(I10
I114
I5
tp6196
I11
s(I62
I24
I9
tp6197
I1
s(I3
I32
I0
tp6198
I2
s(I34
I121
I3
tp6199
I4
s(I38
I118
I5
tp6200
I9
s(I64
I114
I6
tp6201
I3
s(I56
I9
I2
tp6202
I1
s(I62
I92
I2
tp6203
I11
s(I15
I0
I2
tp6204
I7
s(I5
I116
I0
tp6205
I39
s(I11
I118
I9
tp6206
I6
s(I29
I11
I0
tp6207
I74
s(I57
I120
I0
tp6208
I12
s(I44
I124
I9
tp6209
I1346
s(I32
I108
I5
tp6210
I34
s(I44
I95
I0
tp6211
I58
s(I38
I86
I0
tp6212
I8
s(I55
I26
I0
tp6213
I7
s(I16
I87
I0
tp6214
I63
s(I43
I102
I3
tp6215
I1
s(I20
I122
I3
tp6216
I1
s(I23
I0
I0
tp6217
I216
s(I47
I107
I0
tp6218
I57
s(I36
I2
I9
tp6219
I4
s(I19
I123
I0
tp6220
I2098
s(I56
I104
I0
tp6221
I219
s(I34
I119
I6
tp6222
I1
s(I15
I120
I6
tp6223
I7
s(I57
I2
I0
tp6224
I1
s(I38
I82
I9
tp6225
I50
s(I6
I88
I0
tp6226
I2
s(I6
I19
I5
tp6227
I1
s(I33
I107
I6
tp6228
I34
s(I50
I102
I8
tp6229
I1
s(I36
I127
I0
tp6230
I2394
s(I16
I118
I6
tp6231
I6
s(I19
I119
I5
tp6232
I13
s(I6
I127
I3
tp6233
I1
s(I26
I117
I9
tp6234
I14
s(I41
I123
I2
tp6235
I10
s(I63
I14
I9
tp6236
I2174
s(I11
I111
I5
tp6237
I1
s(I5
I118
I2
tp6238
I1915
s(I61
I113
I8
tp6239
I221
s(I19
I1
I0
tp6240
I197
s(I53
I123
I0
tp6241
I1
s(I43
I24
I0
tp6242
I5
s(I27
I122
I5
tp6243
I2
s(I45
I15
I9
tp6244
I3
s(I60
I99
I5
tp6245
I1
s(I44
I6
I0
tp6246
I2381
s(I34
I22
I2
tp6247
I1
s(I55
I24
I2
tp6248
I226
s(I45
I108
I0
tp6249
I226
s(I51
I94
I9
tp6250
I1
s(I63
I111
I5
tp6251
I1
s(I37
I102
I8
tp6252
I208
s(I15
I93
I3
tp6253
I2
s(I36
I123
I9
tp6254
I3
s(I20
I120
I5
tp6255
I8
s(I23
I105
I0
tp6256
I33
s(I47
I105
I6
tp6257
I3
s(I26
I115
I6
tp6258
I1
s(I24
I103
I9
tp6259
I4
s(I27
I102
I0
tp6260
I684
s(I33
I112
I9
tp6261
I1312
s(I26
I20
I9
tp6262
I1
s(I32
I86
I0
tp6263
I241
s(I29
I113
I9
tp6264
I13
s(I60
I103
I8
tp6265
I5
s(I44
I10
I5
tp6266
I1
s(I15
I126
I0
tp6267
I221
s(I30
I104
I6
tp6268
I1
s(I39
I126
I6
tp6269
I8
s(I26
I109
I3
tp6270
I2
s(I63
I8
I0
tp6271
I364
s(I42
I7
I9
tp6272
I11
s(I6
I3
I0
tp6273
I32
s(I36
I119
I9
tp6274
I4
s(I5
I116
I9
tp6275
I3434
s(I14
I7
I3
tp6276
I1
s(I42
I124
I3
tp6277
I9
s(I10
I113
I0
tp6278
I1056
s(I44
I95
I9
tp6279
I1
s(I44
I101
I8
tp6280
I2
s(I6
I121
I5
tp6281
I9
s(I12
I115
I2
tp6282
I1941
s(I55
I0
I8
tp6283
I1452
s(I47
I78
I0
tp6284
I27
s(I7
I115
I5
tp6285
I2024
s(I19
I86
I0
tp6286
I13
s(I9
I15
I0
tp6287
I7
s(I41
I26
I3
tp6288
I1
s(I16
I112
I5
tp6289
I5
s(I34
I24
I0
tp6290
I21
s(I62
I20
I9
tp6291
I2
s(I12
I119
I9
tp6292
I5
s(I46
I98
I9
tp6293
I535
s(I11
I87
I0
tp6294
I15
s(I25
I87
I0
tp6295
I6
s(I59
I25
I0
tp6296
I200
s(I17
I105
I8
tp6297
I1816
s(I57
I112
I3
tp6298
I307
s(I38
I123
I8
tp6299
I11
s(I50
I112
I0
tp6300
I57
s(I34
I92
I3
tp6301
I50
s(I17
I80
I0
tp6302
I1
s(I44
I103
I3
tp6303
I1
s(I3
I111
I8
tp6304
I4
s(I34
I101
I9
tp6305
I266
s(I15
I124
I2
tp6306
I2
s(I60
I0
I5
tp6307
I5
s(I53
I30
I0
tp6308
I1
s(I37
I124
I5
tp6309
I1
s(I33
I87
I2
tp6310
I50
s(I20
I114
I0
tp6311
I15
s(I70
I125
I5
tp6312
I3
s(I57
I108
I6
tp6313
I5
s(I37
I19
I3
tp6314
I3
s(I2
I92
I6
tp6315
I1
s(I21
I8
I0
tp6316
I166
s(I21
I111
I2
tp6317
I15
s(I45
I15
I0
tp6318
I820
s(I16
I114
I2
tp6319
I2
s(I44
I112
I5
tp6320
I4
s(I46
I11
I0
tp6321
I2
s(I30
I102
I5
tp6322
I2
s(I45
I108
I9
tp6323
I3
s(I45
I118
I8
tp6324
I10
s(I41
I119
I6
tp6325
I1
s(I50
I83
I6
tp6326
I1
s(I37
I112
I0
tp6327
I54
s(I24
I111
I5
tp6328
I1891
s(I29
I106
I8
tp6329
I2
s(I23
I87
I8
tp6330
I1
s(I7
I113
I3
tp6331
I12
s(I0
I6
I9
tp6332
I16
s(I9
I96
I0
tp6333
I366
s(I15
I29
I0
tp6334
I1
s(I27
I1
I9
tp6335
I2
s(I36
I119
I3
tp6336
I3
s(I39
I4
I0
tp6337
I1
s(I48
I104
I9
tp6338
I650
s(I29
I113
I0
tp6339
I1745
s(I25
I108
I9
tp6340
I5
s(I37
I93
I5
tp6341
I6
s(I24
I18
I0
tp6342
I24
s(I52
I6
I9
tp6343
I1751
s(I36
I104
I9
tp6344
I269
s(I16
I81
I6
tp6345
I43
s(I41
I115
I3
tp6346
I29
s(I59
I7
I2
tp6347
I1
s(I62
I86
I5
tp6348
I49
s(I20
I124
I9
tp6349
I7
s(I61
I18
I9
tp6350
I12
s(I33
I124
I5
tp6351
I3
s(I18
I101
I0
tp6352
I83
s(I45
I116
I3
tp6353
I6
s(I47
I18
I9
tp6354
I1
s(I56
I123
I2
tp6355
I33
s(I17
I30
I3
tp6356
I1
s(I57
I23
I2
tp6357
I5
s(I0
I127
I0
tp6358
I464
s(I53
I119
I6
tp6359
I5
s(I21
I10
I2
tp6360
I2
s(I21
I97
I0
tp6361
I539
s(I35
I29
I0
tp6362
I8
s(I46
I98
I0
tp6363
I58
s(I61
I9
I8
tp6364
I193
s(I36
I106
I6
tp6365
I597
s(I54
I25
I5
tp6366
I1
s(I60
I10
I0
tp6367
I227
s(I30
I18
I6
tp6368
I1
s(I50
I85
I0
tp6369
I32
s(I17
I76
I0
tp6370
I1
s(I46
I123
I8
tp6371
I3
s(I17
I115
I0
tp6372
I15
s(I61
I119
I2
tp6373
I2
s(I60
I19
I8
tp6374
I202
s(I3
I10
I8
tp6375
I14
s(I5
I99
I0
tp6376
I70
s(I42
I116
I0
tp6377
I14
s(I26
I0
I3
tp6378
I9
s(I29
I115
I6
tp6379
I7
s(I29
I26
I0
tp6380
I1
s(I47
I6
I5
tp6381
I9
s(I30
I124
I0
tp6382
I3
s(I64
I119
I5
tp6383
I2
s(I20
I87
I0
tp6384
I13
s(I54
I124
I2
tp6385
I598
s(I63
I127
I8
tp6386
I46
s(I64
I106
I0
tp6387
I2253
s(I51
I125
I6
tp6388
I5
s(I41
I18
I2
tp6389
I5
s(I19
I115
I8
tp6390
I6
s(I47
I122
I0
tp6391
I355
s(I37
I10
I6
tp6392
I3
s(I46
I121
I3
tp6393
I8
s(I64
I13
I3
tp6394
I1
s(I39
I107
I0
tp6395
I592
s(I0
I125
I2
tp6396
I2
s(I0
I6
I0
tp6397
I1
s(I47
I103
I5
tp6398
I1
s(I21
I99
I6
tp6399
I3
s(I8
I10
I5
tp6400
I1
s(I64
I22
I5
tp6401
I2
s(I48
I104
I0
tp6402
I55
s(I39
I18
I8
tp6403
I2
s(I51
I121
I3
tp6404
I5
s(I25
I11
I0
tp6405
I193
s(I8
I127
I0
tp6406
I1049
s(I48
I11
I9
tp6407
I5
s(I60
I8
I6
tp6408
I3
s(I59
I110
I9
tp6409
I558
s(I43
I118
I5
tp6410
I1
s(I2
I14
I6
tp6411
I1
s(I61
I18
I2
tp6412
I3
s(I28
I95
I0
tp6413
I216
s(I53
I109
I9
tp6414
I659
s(I21
I0
I3
tp6415
I6
s(I21
I103
I3
tp6416
I1
s(I64
I108
I9
tp6417
I3
s(I10
I90
I9
tp6418
I46
s(I44
I115
I9
tp6419
I10
s(I37
I81
I9
tp6420
I2
s(I36
I11
I5
tp6421
I3
s(I36
I108
I5
tp6422
I5
s(I32
I123
I5
tp6423
I6
s(I10
I121
I0
tp6424
I4400
s(I63
I125
I6
tp6425
I3
s(I50
I0
I5
tp6426
I8
s(I36
I86
I6
tp6427
I214
s(I45
I91
I0
tp6428
I1
s(I0
I127
I9
tp6429
I1
s(I26
I16
I0
tp6430
I37
s(I9
I120
I3
tp6431
I7
s(I36
I22
I0
tp6432
I61
s(I29
I0
I5
tp6433
I7
s(I60
I111
I0
tp6434
I9
s(I37
I12
I0
tp6435
I447
s(I52
I101
I8
tp6436
I6
s(I16
I23
I8
tp6437
I1
s(I32
I103
I0
tp6438
I88
s(I63
I0
I8
tp6439
I1
s(I60
I112
I8
tp6440
I1264
s(I30
I14
I8
tp6441
I1
s(I34
I112
I9
tp6442
I13
s(I52
I126
I0
tp6443
I42
s(I5
I6
I0
tp6444
I11
s(I64
I11
I5
tp6445
I53
s(I39
I105
I6
tp6446
I3
s(I70
I123
I3
tp6447
I169
s(I7
I125
I9
tp6448
I2
s(I0
I4
I6
tp6449
I235
s(I38
I87
I8
tp6450
I7
s(I30
I25
I0
tp6451
I15
s(I5
I125
I8
tp6452
I3
s(I16
I124
I8
tp6453
I3
s(I7
I94
I0
tp6454
I366
s(I16
I2
I9
tp6455
I2
s(I15
I122
I9
tp6456
I7
s(I43
I13
I9
tp6457
I3
s(I18
I109
I3
tp6458
I1
s(I36
I110
I2
tp6459
I5
s(I63
I4
I3
tp6460
I8
s(I42
I98
I5
tp6461
I1
s(I42
I15
I2
tp6462
I5
s(I61
I123
I6
tp6463
I12
s(I51
I24
I2
tp6464
I1
s(I57
I15
I3
tp6465
I7
s(I41
I100
I0
tp6466
I73
s(I15
I23
I6
tp6467
I1
s(I14
I123
I0
tp6468
I1
s(I19
I105
I0
tp6469
I11
s(I27
I18
I5
tp6470
I1
s(I42
I6
I6
tp6471
I3
s(I45
I0
I9
tp6472
I1716
s(I50
I2
I3
tp6473
I1
s(I59
I104
I6
tp6474
I213
s(I24
I101
I6
tp6475
I8
s(I27
I82
I3
tp6476
I6
s(I61
I127
I3
tp6477
I1
s(I70
I3
I9
tp6478
I3
s(I38
I85
I3
tp6479
I2
s(I56
I18
I3
tp6480
I12
s(I15
I11
I3
tp6481
I94
s(I33
I122
I3
tp6482
I1
s(I24
I1
I0
tp6483
I37
s(I16
I4
I2
tp6484
I1
s(I50
I97
I0
tp6485
I249
s(I3
I103
I0
tp6486
I22
s(I34
I4
I5
tp6487
I1
s(I37
I14
I2
tp6488
I82
s(I61
I92
I0
tp6489
I30
s(I63
I86
I0
tp6490
I2
s(I41
I5
I6
tp6491
I5
s(I28
I124
I0
tp6492
I1780
s(I59
I13
I5
tp6493
I2
s(I52
I21
I0
tp6494
I386
s(I26
I124
I3
tp6495
I10
s(I60
I17
I3
tp6496
I45
s(I0
I121
I6
tp6497
I1084
s(I21
I0
I8
tp6498
I1
s(I32
I110
I3
tp6499
I40
s(I10
I90
I0
tp6500
I6
s(I12
I121
I8
tp6501
I2
s(I21
I121
I9
tp6502
I8
s(I46
I88
I6
tp6503
I2
s(I42
I111
I3
tp6504
I12
s(I30
I114
I0
tp6505
I1600
s(I47
I115
I9
tp6506
I1549
s(I6
I104
I9
tp6507
I195
s(I53
I10
I3
tp6508
I1
s(I2
I109
I0
tp6509
I1
s(I46
I24
I0
tp6510
I212
s(I46
I113
I2
tp6511
I2
s(I8
I127
I9
tp6512
I2
s(I53
I97
I5
tp6513
I1
s(I2
I114
I8
tp6514
I17
s(I14
I18
I0
tp6515
I1
s(I45
I27
I5
tp6516
I2
s(I29
I121
I8
tp6517
I2
s(I60
I111
I9
tp6518
I775
s(I34
I107
I8
tp6519
I34
s(I54
I3
I6
tp6520
I4
s(I16
I111
I5
tp6521
I11
s(I6
I116
I2
tp6522
I12
s(I34
I112
I0
tp6523
I7
s(I24
I99
I0
tp6524
I546
s(I46
I109
I9
tp6525
I428
s(I20
I98
I6
tp6526
I4
s(I7
I125
I0
tp6527
I199
s(I59
I113
I0
tp6528
I59
s(I15
I9
I5
tp6529
I1
s(I24
I124
I8
tp6530
I7
s(I55
I118
I2
tp6531
I1247
s(I51
I119
I8
tp6532
I7
s(I29
I125
I5
tp6533
I14
s(I57
I42
I3
tp6534
I3
s(I16
I2
I0
tp6535
I255
s(I10
I113
I3
tp6536
I1
s(I41
I7
I0
tp6537
I1914
s(I17
I108
I0
tp6538
I32
s(I28
I98
I2
tp6539
I32
s(I41
I100
I9
tp6540
I490
s(I48
I114
I6
tp6541
I3
s(I20
I1
I2
tp6542
I6
s(I51
I115
I5
tp6543
I2
s(I35
I107
I9
tp6544
I522
s(I52
I119
I5
tp6545
I1
s(I21
I112
I0
tp6546
I360
s(I44
I123
I3
tp6547
I1
s(I14
I80
I3
tp6548
I43
s(I35
I85
I6
tp6549
I1428
s(I35
I12
I0
tp6550
I8
s(I41
I3
I5
tp6551
I3
s(I36
I2
I3
tp6552
I1
s(I53
I12
I5
tp6553
I6
s(I39
I81
I6
tp6554
I2
s(I18
I86
I5
tp6555
I1
s(I36
I34
I0
tp6556
I2
s(I45
I103
I6
tp6557
I2
s(I63
I106
I5
tp6558
I1
s(I53
I99
I3
tp6559
I2
s(I9
I76
I9
tp6560
I2
s(I57
I121
I9
tp6561
I1109
s(I38
I114
I0
tp6562
I15
s(I28
I1
I0
tp6563
I2
s(I36
I13
I3
tp6564
I2
s(I42
I101
I0
tp6565
I75
s(I53
I0
I0
tp6566
I2628
s(I43
I124
I6
tp6567
I1
s(I30
I109
I0
tp6568
I583
s(I20
I96
I0
tp6569
I493
s(I20
I121
I8
tp6570
I8
s(I29
I6
I3
tp6571
I1
s(I35
I109
I2
tp6572
I4
s(I34
I8
I9
tp6573
I4
s(I8
I95
I0
tp6574
I366
s(I64
I123
I0
tp6575
I190
s(I39
I86
I3
tp6576
I1
s(I60
I122
I6
tp6577
I949
s(I56
I113
I8
tp6578
I2
s(I47
I21
I0
tp6579
I10
s(I2
I109
I9
tp6580
I8
s(I46
I18
I8
tp6581
I1
s(I20
I100
I5
tp6582
I3
s(I26
I113
I8
tp6583
I2
s(I56
I10
I0
tp6584
I237
s(I62
I93
I0
tp6585
I31
s(I43
I93
I6
tp6586
I5
s(I5
I115
I2
tp6587
I4050
s(I39
I26
I0
tp6588
I32
s(I57
I127
I2
tp6589
I2
s(I27
I125
I2
tp6590
I1
s(I34
I85
I0
tp6591
I26
s(I9
I105
I8
tp6592
I2
s(I24
I0
I0
tp6593
I1
s(I21
I114
I2
tp6594
I6
s(I39
I90
I6
tp6595
I6
s(I54
I108
I0
tp6596
I2
s(I7
I32
I0
tp6597
I1
s(I24
I99
I9
tp6598
I3
s(I55
I21
I2
tp6599
I11
s(I39
I119
I5
tp6600
I6
s(I51
I18
I8
tp6601
I6
s(I26
I116
I0
tp6602
I21
s(I60
I25
I2
tp6603
I1
s(I3
I0
I2
tp6604
I19
s(I6
I1
I8
tp6605
I1
s(I17
I11
I0
tp6606
I41
s(I48
I124
I5
tp6607
I7
s(I20
I123
I3
tp6608
I16
s(I51
I109
I0
tp6609
I1
s(I38
I124
I2
tp6610
I10
s(I47
I106
I2
tp6611
I6
s(I8
I94
I0
tp6612
I1
s(I42
I28
I0
tp6613
I28
s(I26
I19
I3
tp6614
I1
s(I35
I6
I5
tp6615
I9
s(I50
I105
I0
tp6616
I55
s(I25
I127
I3
tp6617
I9
s(I53
I2
I2
tp6618
I10
s(I43
I122
I0
tp6619
I2230
s(I9
I112
I5
tp6620
I2
s(I20
I102
I2
tp6621
I24
s(I35
I112
I8
tp6622
I14
s(I11
I0
I0
tp6623
I10
s(I19
I4
I3
tp6624
I1
s(I47
I110
I9
tp6625
I4
s(I24
I2
I9
tp6626
I1
s(I2
I89
I0
tp6627
I2
s(I21
I106
I8
tp6628
I1
s(I5
I104
I5
tp6629
I4
s(I42
I16
I5
tp6630
I3
s(I28
I102
I6
tp6631
I3
s(I6
I124
I3
tp6632
I305
s(I61
I2
I0
tp6633
I59
s(I63
I9
I9
tp6634
I1
s(I20
I5
I6
tp6635
I1
s(I23
I100
I3
tp6636
I7
s(I57
I121
I0
tp6637
I448
s(I35
I103
I5
tp6638
I208
s(I53
I35
I0
tp6639
I1
s(I9
I107
I6
tp6640
I1
s(I24
I87
I0
tp6641
I48
s(I42
I101
I9
tp6642
I494
s(I5
I108
I8
tp6643
I12
s(I60
I124
I5
tp6644
I12
s(I53
I0
I9
tp6645
I451
s(I28
I106
I3
tp6646
I1
s(I62
I27
I3
tp6647
I3
s(I45
I107
I2
tp6648
I1
s(I28
I115
I9
tp6649
I1
s(I2
I120
I6
tp6650
I485
s(I23
I1
I0
tp6651
I37
s(I23
I104
I6
tp6652
I2
s(I57
I117
I5
tp6653
I1498
s(I41
I91
I0
tp6654
I2
s(I30
I83
I8
tp6655
I6
s(I64
I123
I9
tp6656
I64
s(I64
I97
I8
tp6657
I55
s(I50
I100
I6
tp6658
I3
s(I32
I14
I0
tp6659
I48
s(I16
I105
I3
tp6660
I6
s(I11
I109
I0
tp6661
I60
s(I56
I103
I0
tp6662
I32
s(I62
I23
I6
tp6663
I54
s(I15
I121
I2
tp6664
I19
s(I39
I121
I0
tp6665
I19
s(I57
I3
I0
tp6666
I20
s(I26
I116
I3
tp6667
I10
s(I56
I0
I8
tp6668
I370
s(I24
I118
I6
tp6669
I6
s(I5
I115
I9
tp6670
I3764
s(I14
I111
I3
tp6671
I74
s(I39
I96
I8
tp6672
I10
s(I23
I5
I5
tp6673
I1
s(I54
I117
I9
tp6674
I1
s(I36
I5
I2
tp6675
I2
s(I36
I126
I0
tp6676
I5
s(I60
I126
I2
tp6677
I54
s(I16
I117
I6
tp6678
I974
s(I3
I86
I0
tp6679
I72
s(I30
I101
I3
tp6680
I1
s(I61
I107
I0
tp6681
I25
s(I48
I2
I3
tp6682
I11
s(I51
I8
I0
tp6683
I371
s(I32
I118
I2
tp6684
I183
s(I7
I11
I3
tp6685
I1
s(I18
I24
I0
tp6686
I6
s(I64
I26
I9
tp6687
I45
s(I61
I114
I8
tp6688
I53
s(I29
I14
I2
tp6689
I1
s(I7
I114
I9
tp6690
I2273
s(I3
I123
I5
tp6691
I8
s(I53
I124
I0
tp6692
I1558
s(I43
I25
I0
tp6693
I6
s(I30
I8
I2
tp6694
I1
s(I33
I110
I6
tp6695
I24
s(I44
I5
I0
tp6696
I7
s(I28
I104
I5
tp6697
I7
s(I43
I122
I9
tp6698
I1347
s(I12
I112
I9
tp6699
I8
s(I43
I0
I8
tp6700
I7
s(I39
I123
I9
tp6701
I1694
s(I61
I8
I5
tp6702
I1
s(I48
I37
I2
tp6703
I1
s(I15
I82
I5
tp6704
I43
s(I11
I107
I9
tp6705
I1
s(I23
I106
I5
tp6706
I231
s(I39
I98
I3
tp6707
I3
s(I23
I110
I0
tp6708
I1062
s(I57
I119
I3
tp6709
I11
s(I38
I120
I6
tp6710
I7
s(I34
I93
I3
tp6711
I3
s(I37
I30
I0
tp6712
I1
s(I2
I89
I9
tp6713
I37
s(I62
I114
I9
tp6714
I2071
s(I63
I22
I8
tp6715
I54
s(I38
I97
I2
tp6716
I8
s(I53
I6
I6
tp6717
I5
s(I39
I25
I2
tp6718
I2
s(I45
I113
I5
tp6719
I6
s(I63
I9
I0
tp6720
I307
s(I62
I14
I8
tp6721
I7
s(I2
I126
I5
tp6722
I3
s(I14
I105
I5
tp6723
I4
s(I61
I112
I3
tp6724
I51
s(I29
I111
I6
tp6725
I8
s(I50
I117
I9
tp6726
I1557
s(I24
I87
I9
tp6727
I1
s(I11
I124
I8
tp6728
I1
s(I16
I115
I0
tp6729
I3130
s(I47
I20
I6
tp6730
I3
s(I12
I114
I6
tp6731
I9
s(I7
I9
I5
tp6732
I1
s(I41
I118
I0
tp6733
I1
s(I63
I13
I5
tp6734
I4
s(I37
I127
I2
tp6735
I5
s(I2
I120
I9
tp6736
I32
s(I8
I18
I0
tp6737
I1
s(I14
I101
I0
tp6738
I1
s(I14
I2
I2
tp6739
I9
s(I41
I109
I8
tp6740
I6
s(I27
I122
I3
tp6741
I2
s(I44
I117
I6
tp6742
I1
s(I33
I119
I0
tp6743
I26
s(I29
I112
I2
tp6744
I34
s(I25
I127
I2
tp6745
I8
s(I34
I27
I0
tp6746
I1
s(I34
I96
I6
tp6747
I7
s(I52
I7
I5
tp6748
I4
s(I50
I27
I9
tp6749
I3
s(I43
I99
I5
tp6750
I2
s(I2
I124
I2
tp6751
I5
s(I1
I0
I8
tp6752
I2
s(I3
I117
I0
tp6753
I2
s(I27
I12
I0
tp6754
I16
s(I45
I12
I5
tp6755
I5
s(I29
I116
I9
tp6756
I3
s(I50
I104
I3
tp6757
I3
s(I3
I86
I9
tp6758
I88
s(I28
I18
I0
tp6759
I32
s(I3
I108
I8
tp6760
I12
s(I62
I19
I2
tp6761
I10
s(I42
I11
I6
tp6762
I7
s(I54
I18
I8
tp6763
I1
s(I54
I4
I9
tp6764
I4
s(I63
I102
I0
tp6765
I396
s(I53
I31
I0
tp6766
I217
s(I43
I92
I8
tp6767
I8
s(I24
I114
I2
tp6768
I1
s(I55
I124
I8
tp6769
I7
s(I17
I93
I5
tp6770
I2
s(I51
I122
I9
tp6771
I591
s(I44
I19
I8
tp6772
I2
s(I47
I123
I9
tp6773
I436
s(I12
I112
I0
tp6774
I2906
s(I15
I113
I3
tp6775
I16
s(I50
I16
I9
tp6776
I5
s(I32
I114
I6
tp6777
I1
s(I35
I92
I8
tp6778
I334
s(I37
I113
I0
tp6779
I9
s(I54
I111
I2
tp6780
I7
s(I14
I103
I2
tp6781
I1
s(I64
I85
I8
tp6782
I49
s(I23
I110
I9
tp6783
I4
s(I19
I85
I6
tp6784
I1
s(I3
I119
I9
tp6785
I4
s(I5
I98
I6
tp6786
I1
s(I39
I5
I0
tp6787
I72
s(I60
I102
I3
tp6788
I7
s(I3
I110
I3
tp6789
I6
s(I62
I17
I9
tp6790
I2172
s(I12
I116
I5
tp6791
I11
s(I8
I115
I5
tp6792
I6
s(I30
I125
I2
tp6793
I5
s(I48
I10
I0
tp6794
I190
s(I32
I21
I3
tp6795
I1
s(I54
I125
I0
tp6796
I1792
s(I59
I4
I2
tp6797
I1
s(I53
I116
I3
tp6798
I2
s(I9
I125
I5
tp6799
I1
s(I30
I0
I3
tp6800
I12
s(I64
I107
I2
tp6801
I341
s(I41
I17
I0
tp6802
I2
s(I25
I14
I3
tp6803
I1
s(I47
I5
I2
tp6804
I3
s(I34
I1
I5
tp6805
I2
s(I34
I102
I5
tp6806
I558
s(I30
I121
I9
tp6807
I2
s(I9
I111
I0
tp6808
I17
s(I35
I94
I3
tp6809
I1
s(I10
I120
I9
tp6810
I5
s(I41
I8
I8
tp6811
I8
s(I43
I109
I0
tp6812
I3
s(I17
I112
I5
tp6813
I9
s(I39
I106
I2
tp6814
I2
s(I15
I5
I5
tp6815
I1
s(I10
I7
I0
tp6816
I1
s(I0
I126
I0
tp6817
I512
s(I50
I121
I5
tp6818
I2
s(I9
I103
I9
tp6819
I1
s(I18
I3
I3
tp6820
I1
s(I17
I95
I3
tp6821
I2
s(I25
I115
I0
tp6822
I69
s(I28
I20
I3
tp6823
I1
s(I12
I118
I2
tp6824
I2424
s(I34
I5
I8
tp6825
I2
s(I42
I123
I6
tp6826
I1
s(I46
I4
I2
tp6827
I1
s(I46
I93
I0
tp6828
I6
s(I21
I121
I8
tp6829
I1
s(I36
I105
I6
tp6830
I27
s(I32
I112
I8
tp6831
I1298
s(I60
I9
I0
tp6832
I16
s(I3
I16
I0
tp6833
I2
s(I37
I115
I6
tp6834
I7
s(I17
I124
I0
tp6835
I2121
s(I70
I122
I6
tp6836
I6
s(I57
I12
I9
tp6837
I1773
s(I60
I18
I8
tp6838
I12
s(I30
I115
I8
tp6839
I5
s(I5
I100
I0
tp6840
I482
s(I5
I87
I0
tp6841
I45
s(I29
I27
I0
tp6842
I8
s(I44
I108
I9
tp6843
I981
s(I23
I98
I5
tp6844
I24
s(I61
I14
I3
tp6845
I1
s(I20
I86
I0
tp6846
I23
s(I54
I4
I0
tp6847
I1371
s(I63
I124
I8
tp6848
I2
s(I53
I9
I8
tp6849
I8
s(I37
I119
I3
tp6850
I1
s(I64
I0
I8
tp6851
I4
s(I47
I96
I8
tp6852
I3
s(I9
I127
I3
tp6853
I1
s(I5
I119
I3
tp6854
I15
s(I23
I16
I0
tp6855
I2
s(I19
I112
I8
tp6856
I4
s(I47
I123
I0
tp6857
I1660
s(I52
I102
I6
tp6858
I3
s(I14
I89
I0
tp6859
I15
s(I20
I90
I6
tp6860
I1
s(I56
I120
I0
tp6861
I219
s(I9
I92
I0
tp6862
I46
s(I23
I106
I0
tp6863
I700
s(I57
I18
I0
tp6864
I2
s(I0
I5
I0
tp6865
I9
s(I18
I5
I5
tp6866
I1
s(I33
I123
I6
tp6867
I4
s(I48
I119
I0
tp6868
I72
s(I51
I118
I5
tp6869
I1
s(I35
I24
I2
tp6870
I1
s(I7
I89
I2
tp6871
I1
s(I36
I111
I0
tp6872
I60
s(I48
I5
I2
tp6873
I1
s(I54
I125
I9
tp6874
I259
s(I54
I103
I8
tp6875
I3
s(I16
I102
I6
tp6876
I554
s(I63
I126
I3
tp6877
I34
s(I6
I111
I3
tp6878
I1
s(I17
I126
I2
tp6879
I1
s(I33
I26
I0
tp6880
I1
s(I62
I39
I2
tp6881
I2
s(I5
I102
I2
tp6882
I1
s(I19
I17
I0
tp6883
I15
s(I43
I8
I0
tp6884
I33
s(I18
I110
I8
tp6885
I11
s(I10
I120
I0
tp6886
I29
s(I59
I0
I6
tp6887
I21
s(I43
I115
I8
tp6888
I10
s(I11
I121
I2
tp6889
I11
s(I52
I94
I0
tp6890
I1
s(I10
I104
I0
tp6891
I1
s(I45
I92
I0
tp6892
I218
s(I70
I0
I9
tp6893
I3
s(I35
I121
I0
tp6894
I17
s(I27
I111
I8
tp6895
I2
s(I36
I21
I0
tp6896
I3
s(I50
I8
I9
tp6897
I1
s(I23
I121
I0
tp6898
I432
s(I44
I17
I3
tp6899
I2
s(I47
I121
I6
tp6900
I11
s(I15
I119
I8
tp6901
I16
s(I27
I118
I0
tp6902
I3993
s(I33
I0
I9
tp6903
I7
s(I32
I102
I0
tp6904
I14
s(I56
I118
I2
tp6905
I208
s(I17
I124
I9
tp6906
I3
s(I39
I110
I6
tp6907
I3
s(I0
I3
I6
tp6908
I4
s(I27
I107
I5
tp6909
I2
s(I5
I100
I9
tp6910
I2
s(I45
I22
I6
tp6911
I1
s(I25
I6
I2
tp6912
I1
s(I46
I0
I6
tp6913
I13
s(I55
I9
I0
tp6914
I239
s(I42
I108
I3
tp6915
I1
s(I6
I105
I5
tp6916
I3
s(I12
I99
I2
tp6917
I445
s(I64
I95
I2
tp6918
I282
s(I70
I6
I2
tp6919
I60
s(I47
I94
I0
tp6920
I31
s(I19
I102
I0
tp6921
I1520
s(I33
I6
I0
tp6922
I11
s(I39
I79
I0
tp6923
I215
s(I41
I10
I3
tp6924
I4
s(I35
I13
I9
tp6925
I1
s(I59
I14
I8
tp6926
I9
s(I62
I4
I9
tp6927
I2
s(I2
I13
I8
tp6928
I63
s(I43
I113
I6
tp6929
I11
s(I46
I114
I9
tp6930
I1543
s(I61
I96
I5
tp6931
I20
s(I17
I89
I8
tp6932
I513
s(I38
I107
I8
tp6933
I5
s(I44
I23
I5
tp6934
I1
s(I50
I96
I0
tp6935
I1
s(I34
I7
I3
tp6936
I9
s(I34
I108
I3
tp6937
I617
s(I62
I125
I9
tp6938
I17
s(I39
I83
I5
tp6939
I2
s(I28
I99
I0
tp6940
I127
s(I34
I117
I9
tp6941
I1667
s(I2
I113
I5
tp6942
I9
s(I33
I103
I2
tp6943
I70
s(I20
I2
I0
tp6944
I154
s(I10
I93
I0
tp6945
I48
s(I57
I124
I6
tp6946
I4
s(I44
I114
I2
tp6947
I2
s(I12
I120
I8
tp6948
I2
s(I37
I3
I3
tp6949
I2
s(I21
I127
I2
tp6950
I4
s(I55
I86
I0
tp6951
I29
s(I45
I127
I0
tp6952
I3
s(I20
I27
I8
tp6953
I1
s(I16
I98
I2
tp6954
I2
s(I53
I11
I5
tp6955
I1
s(I9
I84
I3
tp6956
I1
s(I46
I27
I0
tp6957
I2
s(I30
I86
I5
tp6958
I1
s(I45
I92
I9
tp6959
I3
s(I70
I0
I0
tp6960
I10
s(I7
I126
I5
tp6961
I17
s(I41
I103
I6
tp6962
I1
s(I59
I114
I5
tp6963
I222
s(I37
I96
I0
tp6964
I33
s(I24
I127
I5
tp6965
I140
s(I8
I1
I2
tp6966
I1
s(I14
I116
I2
tp6967
I5
s(I48
I127
I3
tp6968
I6
s(I29
I122
I8
tp6969
I8
s(I23
I103
I8
tp6970
I4
s(I62
I100
I2
tp6971
I10
s(I50
I15
I0
tp6972
I64
s(I34
I106
I8
tp6973
I170
s(I36
I14
I3
tp6974
I1
s(I36
I103
I3
tp6975
I2
s(I25
I124
I9
tp6976
I7
s(I6
I119
I2
tp6977
I3
s(I24
I98
I0
tp6978
I2
s(I37
I126
I8
tp6979
I1
s(I54
I117
I3
tp6980
I3
s(I41
I99
I3
tp6981
I1
s(I59
I126
I0
tp6982
I414
s(I38
I89
I0
tp6983
I26
s(I16
I1
I0
tp6984
I29
s(I24
I5
I3
tp6985
I3
s(I42
I5
I8
tp6986
I5
s(I45
I125
I9
tp6987
I1350
s(I41
I0
I0
tp6988
I627
s(I56
I114
I6
tp6989
I3
s(I18
I85
I0
tp6990
I49
s(I45
I100
I3
tp6991
I6
s(I17
I108
I9
tp6992
I20
s(I39
I21
I2
tp6993
I3
s(I35
I18
I8
tp6994
I1
s(I25
I2
I6
tp6995
I1
s(I19
I92
I8
tp6996
I2
s(I3
I126
I5
tp6997
I2
s(I27
I126
I3
tp6998
I4
s(I48
I2
I0
tp6999
I44
s(I35
I13
I0
tp7000
I222
s(I46
I114
I0
tp7001
I580
s(I36
I33
I0
tp7002
I2
s(I61
I3
I9
tp7003
I2131
s(I60
I26
I0
tp7004
I206
s(I33
I109
I5
tp7005
I40
s(I38
I125
I0
tp7006
I254
s(I28
I0
I0
tp7007
I818
s(I30
I119
I8
tp7008
I4
s(I5
I83
I0
tp7009
I45
s(I42
I100
I0
tp7010
I1
s(I3
I110
I9
tp7011
I1654
s(I39
I6
I8
tp7012
I1
s(I47
I22
I5
tp7013
I3
s(I37
I123
I2
tp7014
I5
s(I43
I125
I2
tp7015
I7
s(I20
I103
I0
tp7016
I65
s(I26
I105
I9
tp7017
I231
s(I7
I0
I2
tp7018
I1
s(I63
I111
I8
tp7019
I4
s(I20
I120
I8
tp7020
I1
s(I25
I99
I2
tp7021
I3
s(I64
I122
I0
tp7022
I2223
s(I60
I121
I6
tp7023
I371
s(I16
I104
I6
tp7024
I7
s(I63
I17
I3
tp7025
I24
s(I47
I10
I0
tp7026
I1541
s(I53
I92
I9
tp7027
I3
s(I8
I126
I2
tp7028
I4
s(I46
I13
I8
tp7029
I1
s(I61
I1
I6
tp7030
I1
s(I18
I126
I8
tp7031
I9
s(I38
I92
I6
tp7032
I6
s(I3
I5
I9
tp7033
I22
s(I9
I115
I0
tp7034
I44
s(I37
I122
I8
tp7035
I8
s(I29
I100
I0
tp7036
I461
s(I57
I120
I2
tp7037
I197
s(I44
I118
I6
tp7038
I10
s(I47
I119
I5
tp7039
I9
s(I11
I118
I3
tp7040
I11
s(I34
I15
I2
tp7041
I3
s(I9
I106
I8
tp7042
I55
s(I21
I115
I6
tp7043
I10
s(I30
I15
I6
tp7044
I1
s(I1
I124
I0
tp7045
I753
s(I35
I11
I2
tp7046
I1
s(I25
I27
I0
tp7047
I2
s(I56
I108
I5
tp7048
I5
s(I28
I107
I3
tp7049
I473
s(I59
I93
I0
tp7050
I49
s(I57
I6
I3
tp7051
I1
s(I59
I126
I9
tp7052
I1599
s(I33
I111
I3
tp7053
I1447
s(I61
I34
I2
tp7054
I3
s(I51
I106
I0
tp7055
I55
s(I41
I35
I0
tp7056
I4
s(I44
I122
I3
tp7057
I6
s(I53
I125
I9
tp7058
I587
s(I47
I109
I6
tp7059
I2
s(I64
I124
I9
tp7060
I2
s(I41
I0
I9
tp7061
I1
s(I16
I106
I3
tp7062
I27
s(I50
I11
I3
tp7063
I8
s(I6
I115
I6
tp7064
I12
s(I10
I105
I0
tp7065
I546
s(I63
I109
I6
tp7066
I51
s(I59
I19
I6
tp7067
I214
s(I37
I120
I3
tp7068
I8
s(I50
I105
I9
tp7069
I653
s(I14
I108
I3
tp7070
I1815
s(I33
I107
I3
tp7071
I1240
s(I37
I5
I8
tp7072
I9
s(I36
I6
I0
tp7073
I870
s(I48
I26
I9
tp7074
I2
s(I29
I16
I5
tp7075
I1
s(I60
I127
I0
tp7076
I431
s(I47
I8
I2
tp7077
I5
s(I53
I7
I3
tp7078
I3
s(I52
I117
I8
tp7079
I2
s(I61
I3
I0
tp7080
I413
s(I32
I119
I0
tp7081
I666
s(I60
I0
I8
tp7082
I21
s(I64
I27
I5
tp7083
I2
s(I17
I117
I8
tp7084
I976
s(I44
I116
I8
tp7085
I7
s(I7
I109
I9
tp7086
I24
s(I53
I123
I2
tp7087
I28
s(I24
I86
I0
tp7088
I2
s(I30
I9
I0
tp7089
I25
s(I1
I126
I2
tp7090
I1
s(I32
I106
I5
tp7091
I1
s(I16
I108
I8
tp7092
I18
s(I18
I93
I3
tp7093
I1
s(I52
I2
I3
tp7094
I1452
s(I55
I24
I0
tp7095
I1
s(I20
I103
I9
tp7096
I27
s(I61
I7
I5
tp7097
I59
s(I20
I93
I8
tp7098
I2
s(I57
I0
I5
tp7099
I21
s(I2
I123
I0
tp7100
I1
s(I38
I90
I5
tp7101
I6
s(I2
I123
I6
tp7102
I3
s(I64
I7
I0
tp7103
I188
s(I23
I105
I2
tp7104
I3
s(I44
I120
I5
tp7105
I6
s(I18
I120
I2
tp7106
I10
s(I32
I13
I0
tp7107
I25
s(I32
I86
I6
tp7108
I1
s(I19
I121
I0
tp7109
I21
s(I6
I125
I8
tp7110
I2
s(I39
I126
I0
tp7111
I23
s(I45
I112
I9
tp7112
I27
s(I29
I82
I8
tp7113
I2
s(I41
I121
I5
tp7114
I2
s(I63
I8
I6
tp7115
I5
s(I59
I120
I6
tp7116
I3
s(I24
I117
I6
tp7117
I8
s(I2
I4
I9
tp7118
I117
s(I11
I118
I0
tp7119
I5001
s(I56
I22
I2
tp7120
I9
s(I26
I5
I8
tp7121
I2
s(I29
I11
I9
tp7122
I1
s(I39
I30
I9
tp7123
I1
s(I27
I98
I9
tp7124
I74
s(I48
I2
I2
tp7125
I260
s(I26
I8
I0
tp7126
I99
s(I38
I5
I9
tp7127
I9
s(I1
I4
I8
tp7128
I120
s(I43
I5
I3
tp7129
I2
s(I8
I122
I6
tp7130
I188
s(I61
I108
I0
tp7131
I227
s(I51
I9
I0
tp7132
I589
s(I38
I88
I2
tp7133
I1
s(I53
I102
I8
tp7134
I3
s(I36
I88
I5
tp7135
I7
s(I60
I33
I3
tp7136
I45
s(I23
I114
I5
tp7137
I58
s(I56
I104
I9
tp7138
I1915
s(I46
I104
I6
tp7139
I5
s(I52
I0
I5
tp7140
I8
s(I42
I95
I3
tp7141
I1
s(I54
I19
I2
tp7142
I9
s(I25
I87
I2
tp7143
I2
s(I53
I26
I3
tp7144
I1
s(I12
I18
I0
tp7145
I5
s(I62
I13
I5
tp7146
I2
s(I2
I125
I0
tp7147
I756
s(I64
I5
I2
tp7148
I447
s(I23
I4
I2
tp7149
I3
s(I29
I108
I3
tp7150
I3
s(I41
I86
I2
tp7151
I29
s(I3
I116
I6
tp7152
I1
s(I53
I113
I5
tp7153
I2
s(I37
I31
I0
tp7154
I8
s(I45
I11
I5
tp7155
I1
s(I60
I127
I9
tp7156
I2152
s(I62
I16
I0
tp7157
I357
s(I52
I99
I0
tp7158
I250
s(I55
I2
I5
tp7159
I5
s(I29
I112
I9
tp7160
I2
s(I29
I80
I0
tp7161
I26
s(I24
I115
I0
tp7162
I4401
s(I46
I125
I9
tp7163
I5
s(I20
I114
I6
tp7164
I12
s(I7
I109
I0
tp7165
I70
s(I28
I87
I3
tp7166
I240
s(I48
I100
I5
tp7167
I3
s(I16
I114
I0
tp7168
I117
s(I47
I12
I6
tp7169
I2
s(I12
I113
I6
tp7170
I1
s(I8
I120
I8
tp7171
I9
s(I55
I6
I8
tp7172
I1
s(I42
I12
I9
tp7173
I8
s(I54
I118
I5
tp7174
I3
s(I41
I119
I0
tp7175
I217
s(I28
I114
I2
tp7176
I10
s(I37
I112
I2
tp7177
I3
s(I51
I122
I5
tp7178
I3
s(I33
I105
I8
tp7179
I3
s(I8
I17
I0
tp7180
I66
s(I38
I100
I2
tp7181
I1
s(I14
I100
I0
tp7182
I2
s(I33
I112
I0
tp7183
I250
s(I48
I98
I6
tp7184
I1
s(I32
I13
I9
tp7185
I1
s(I19
I111
I8
tp7186
I9
s(I34
I26
I0
tp7187
I1
s(I8
I116
I5
tp7188
I5
s(I11
I85
I0
tp7189
I43
s(I52
I0
I6
tp7190
I1
s(I2
I4
I0
tp7191
I214
s(I61
I40
I8
tp7192
I3
s(I3
I114
I0
tp7193
I116
s(I10
I118
I8
tp7194
I6
s(I18
I124
I6
tp7195
I7
s(I21
I109
I5
tp7196
I5
s(I27
I13
I0
tp7197
I179
s(I53
I27
I0
tp7198
I33
s(I38
I98
I0
tp7199
I6
s(I18
I92
I2
tp7200
I1
s(I46
I102
I5
tp7201
I3
s(I61
I108
I9
tp7202
I1940
s(I30
I126
I9
tp7203
I8
s(I60
I6
I5
tp7204
I16
s(I24
I113
I2
tp7205
I1
s(I15
I85
I6
tp7206
I2
s(I30
I93
I0
tp7207
I1428
s(I20
I112
I0
tp7208
I1982
s(I23
I81
I3
tp7209
I23
s(I44
I41
I0
tp7210
I2
s(I50
I118
I5
tp7211
I2
s(I18
I0
I3
tp7212
I7
s(I39
I95
I9
tp7213
I335
s(I39
I6
I5
tp7214
I5
s(I64
I104
I9
tp7215
I1
s(I12
I119
I0
tp7216
I934
s(I46
I5
I0
tp7217
I600
s(I32
I113
I6
tp7218
I1521
s(I2
I125
I9
tp7219
I3340
s(I2
I103
I8
tp7220
I1263
s(I36
I92
I9
tp7221
I335
s(I17
I115
I2
tp7222
I4
s(I20
I116
I5
tp7223
I10
s(I56
I26
I0
tp7224
I20
s(I28
I9
I3
tp7225
I1
s(I37
I105
I8
tp7226
I29
s(I5
I99
I2
tp7227
I36
s(I39
I10
I0
tp7228
I810
s(I26
I89
I5
tp7229
I1
s(I34
I101
I0
tp7230
I30
s(I52
I99
I9
tp7231
I1894
s(I30
I124
I6
tp7232
I14
s(I7
I16
I0
tp7233
I66
s(I52
I3
I8
tp7234
I5
s(I24
I115
I9
tp7235
I10
s(I5
I106
I3
tp7236
I1
s(I39
I103
I5
tp7237
I1
s(I41
I82
I6
tp7238
I2
s(I19
I117
I3
tp7239
I6
s(I50
I116
I2
tp7240
I1
s(I59
I119
I8
tp7241
I598
s(I48
I108
I5
tp7242
I2
s(I51
I125
I0
tp7243
I17
s(I41
I18
I0
tp7244
I211
s(I25
I112
I5
tp7245
I2
s(I18
I91
I8
tp7246
I2
s(I47
I122
I2
tp7247
I2
s(I43
I9
I9
tp7248
I82
s(I42
I12
I0
tp7249
I811
s(I51
I126
I9
tp7250
I445
s(I54
I1
I9
tp7251
I443
s(I53
I18
I2
tp7252
I371
s(I43
I106
I0
tp7253
I221
s(I2
I101
I3
tp7254
I1
s(I11
I112
I6
tp7255
I103
s(I20
I118
I2
tp7256
I58
s(I35
I96
I8
tp7257
I7
s(I0
I125
I0
tp7258
I51
s(I56
I27
I8
tp7259
I1
s(I25
I108
I0
tp7260
I717
s(I47
I126
I9
tp7261
I1
s(I12
I117
I2
tp7262
I3
s(I46
I7
I2
tp7263
I6
s(I21
I122
I8
tp7264
I7
s(I42
I0
I5
tp7265
I1
s(I51
I3
I6
tp7266
I2
s(I54
I114
I9
tp7267
I507
s(I29
I88
I3
tp7268
I1
s(I63
I121
I3
tp7269
I6
s(I28
I118
I6
tp7270
I3
s(I6
I108
I3
tp7271
I57
s(I61
I18
I0
tp7272
I10
s(I57
I114
I8
tp7273
I3
s(I3
I114
I9
tp7274
I34
s(I62
I36
I0
tp7275
I6
s(I21
I0
I5
tp7276
I5
s(I52
I95
I0
tp7277
I54
s(I45
I23
I3
tp7278
I3
s(I23
I116
I3
tp7279
I35
s(I54
I32
I9
tp7280
I1
s(I30
I126
I0
tp7281
I3538
s(I54
I7
I0
tp7282
I1
s(I62
I11
I3
tp7283
I4
s(I5
I2
I3
tp7284
I2
s(I55
I107
I0
tp7285
I61
s(I47
I95
I9
tp7286
I1876
s(I12
I84
I0
tp7287
I62
s(I21
I97
I9
tp7288
I3
s(I64
I104
I0
tp7289
I198
s(I23
I17
I0
tp7290
I22
s(I23
I120
I6
tp7291
I17
s(I37
I85
I0
tp7292
I1
s(I46
I5
I9
tp7293
I3
s(I21
I120
I3
tp7294
I14
s(I33
I7
I9
tp7295
I4
s(I64
I113
I8
tp7296
I64
s(I60
I10
I9
tp7297
I2162
s(I10
I125
I9
tp7298
I17
s(I6
I98
I8
tp7299
I1
s(I56
I119
I0
tp7300
I249
s(I6
I116
I9
tp7301
I2
s(I62
I7
I6
tp7302
I30
s(I55
I95
I8
tp7303
I1
s(I57
I19
I0
tp7304
I9
s(I0
I4
I0
tp7305
I11
s(I36
I117
I8
tp7306
I12
s(I39
I10
I9
tp7307
I3
s(I23
I21
I5
tp7308
I1
s(I50
I25
I8
tp7309
I2
s(I55
I8
I6
tp7310
I21
s(I32
I99
I9
tp7311
I13
s(I16
I101
I6
tp7312
I60
s(I41
I122
I6
tp7313
I5
s(I28
I116
I8
tp7314
I3
s(I30
I85
I3
tp7315
I2
s(I61
I123
I0
tp7316
I22
s(I51
I24
I0
tp7317
I7
s(I35
I122
I5
tp7318
I1
s(I53
I117
I8
tp7319
I1
s(I18
I8
I0
tp7320
I64
s(I64
I106
I9
tp7321
I1
s(I41
I18
I9
tp7322
I2
s(I7
I98
I9
tp7323
I1
s(I19
I105
I2
tp7324
I2
s(I3
I107
I5
tp7325
I12
s(I12
I127
I3
tp7326
I3
s(I43
I9
I0
tp7327
I1964
s(I64
I115
I3
tp7328
I1
s(I28
I120
I5
tp7329
I4
s(I43
I106
I9
tp7330
I979
s(I55
I105
I6
tp7331
I13
s(I17
I123
I3
tp7332
I9
s(I70
I121
I8
tp7333
I18
s(I57
I104
I5
tp7334
I5
s(I35
I118
I0
tp7335
I1857
s(I12
I90
I2
tp7336
I9
s(I12
I3
I0
tp7337
I75
s(I27
I108
I8
tp7338
I1
s(I5
I123
I3
tp7339
I8
s(I32
I92
I8
tp7340
I209
s(I23
I126
I0
tp7341
I2178
s(I44
I111
I5
tp7342
I4
s(I34
I109
I3
tp7343
I7
s(I37
I14
I0
tp7344
I3
s(I35
I91
I5
tp7345
I53
s(I54
I13
I5
tp7346
I6
s(I63
I6
I8
tp7347
I30
s(I53
I22
I6
tp7348
I1
s(I55
I109
I3
tp7349
I7
s(I45
I97
I5
tp7350
I3
s(I57
I100
I0
tp7351
I1
s(I50
I124
I3
tp7352
I7
s(I14
I121
I5
tp7353
I12
s(I54
I32
I0
tp7354
I17
s(I44
I115
I0
tp7355
I1729
s(I50
I101
I9
tp7356
I540
s(I46
I3
I6
tp7357
I16
s(I55
I14
I0
tp7358
I4
s(I62
I111
I8
tp7359
I8
s(I16
I99
I0
tp7360
I40
s(I50
I0
I2
tp7361
I6
s(I43
I114
I3
tp7362
I4
s(I18
I84
I9
tp7363
I1
s(I64
I94
I6
tp7364
I1
s(I7
I121
I5
tp7365
I5
s(I47
I95
I0
tp7366
I218
s(I8
I2
I0
tp7367
I130
s(I14
I117
I0
tp7368
I3598
s(I51
I113
I6
tp7369
I2
s(I41
I93
I8
tp7370
I2
s(I33
I7
I0
tp7371
I510
s(I32
I114
I3
tp7372
I14
s(I6
I116
I0
tp7373
I337
s(I56
I109
I8
tp7374
I4
s(I34
I112
I6
tp7375
I14
s(I52
I23
I5
tp7376
I1
s(I7
I125
I2
tp7377
I5
s(I50
I122
I8
tp7378
I9
s(I12
I1
I2
tp7379
I7
s(I23
I124
I2
tp7380
I9
s(I27
I117
I6
tp7381
I7
s(I27
I28
I0
tp7382
I3
s(I33
I3
I5
tp7383
I4
s(I10
I113
I5
tp7384
I103
s(I24
I79
I5
tp7385
I23
s(I60
I37
I0
tp7386
I17
s(I3
I92
I8
tp7387
I2
s(I62
I3
I2
tp7388
I10
s(I52
I114
I2
tp7389
I4
s(I61
I101
I8
tp7390
I2
s(I51
I14
I8
tp7391
I1
s(I54
I20
I9
tp7392
I3
s(I20
I1
I0
tp7393
I4
s(I38
I9
I5
tp7394
I8
s(I25
I106
I6
tp7395
I15
s(I44
I26
I0
tp7396
I6
s(I15
I110
I5
tp7397
I4430
s(I21
I112
I2
tp7398
I3
s(I55
I12
I2
tp7399
I148
s(I45
I0
I0
tp7400
I1440
s(I32
I111
I5
tp7401
I25
s(I35
I12
I6
tp7402
I1
s(I44
I3
I8
tp7403
I2
s(I56
I111
I3
tp7404
I5
s(I12
I96
I0
tp7405
I39
s(I64
I92
I0
tp7406
I1
s(I70
I3
I0
tp7407
I2057
s(I35
I118
I9
tp7408
I3
s(I37
I97
I0
tp7409
I1
s(I21
I6
I3
tp7410
I1
s(I14
I119
I2
tp7411
I8
s(I23
I126
I9
tp7412
I7
s(I29
I101
I9
tp7413
I5
s(I3
I103
I9
tp7414
I2526
s(I28
I1
I6
tp7415
I1
s(I15
I98
I0
tp7416
I41
s(I33
I1
I2
tp7417
I1
s(I60
I118
I3
tp7418
I16
s(I63
I28
I0
tp7419
I86
s(I6
I31
I0
tp7420
I1
s(I62
I1
I9
tp7421
I2178
s(I30
I109
I2
tp7422
I2
s(I64
I88
I5
tp7423
I11
s(I39
I117
I6
tp7424
I7
s(I41
I124
I5
tp7425
I4
s(I26
I85
I0
tp7426
I49
s(I16
I0
I0
tp7427
I1
s(I18
I111
I8
tp7428
I5
s(I30
I112
I3
tp7429
I23
s(I64
I123
I2
tp7430
I333
s(I42
I121
I9
tp7431
I1340
s(I35
I87
I9
tp7432
I254
s(I34
I118
I5
tp7433
I12
s(I52
I9
I2
tp7434
I3
s(I14
I117
I9
tp7435
I12
s(I34
I12
I0
tp7436
I201
s(I24
I0
I2
tp7437
I2
s(I35
I5
I9
tp7438
I2
s(I64
I103
I9
tp7439
I4
s(I45
I2
I2
tp7440
I8
s(I41
I123
I9
tp7441
I1
s(I12
I102
I2
tp7442
I249
s(I34
I21
I8
tp7443
I2
s(I52
I5
I2
tp7444
I370
s(I46
I109
I0
tp7445
I22
s(I60
I25
I0
tp7446
I12
s(I3
I0
I0
tp7447
I148
s(I47
I0
I0
tp7448
I1
s(I11
I4
I3
tp7449
I1
s(I5
I119
I9
tp7450
I886
s(I36
I89
I8
tp7451
I264
s(I20
I123
I5
tp7452
I1
s(I51
I109
I2
tp7453
I9
s(I38
I124
I0
tp7454
I9
s(I3
I123
I8
tp7455
I12
s(I62
I124
I2
tp7456
I15
s(I8
I94
I6
tp7457
I36
s(I41
I7
I9
tp7458
I5
s(I63
I117
I0
tp7459
I301
s(I44
I92
I9
tp7460
I1862
s(I53
I2
I0
tp7461
I2
s(I34
I116
I2
tp7462
I7
s(I54
I20
I0
tp7463
I565
s(I63
I108
I8
tp7464
I1
s(I28
I110
I6
tp7465
I4
s(I59
I125
I6
tp7466
I6
s(I21
I83
I2
tp7467
I23
s(I55
I122
I0
tp7468
I465
s(I64
I6
I9
tp7469
I30
s(I47
I112
I8
tp7470
I6
s(I11
I116
I6
tp7471
I1
s(I52
I118
I6
tp7472
I3
s(I61
I2
I6
tp7473
I4
s(I30
I2
I8
tp7474
I1
s(I9
I76
I0
tp7475
I1
s(I59
I121
I3
tp7476
I3
s(I15
I1
I0
tp7477
I267
s(I2
I116
I3
tp7478
I1584
s(I36
I91
I3
tp7479
I5
s(I29
I101
I0
tp7480
I291
s(I38
I114
I9
tp7481
I2054
s(I18
I117
I5
tp7482
I2
s(I48
I103
I0
tp7483
I1
s(I39
I3
I8
tp7484
I4
s(I32
I2
I5
tp7485
I4
s(I35
I8
I2
tp7486
I4
s(I63
I119
I9
tp7487
I2207
s(I9
I81
I5
tp7488
I2
s(I59
I90
I0
tp7489
I29
s(I52
I106
I3
tp7490
I1
s(I55
I27
I6
tp7491
I1
s(I61
I6
I9
tp7492
I6
s(I57
I7
I5
tp7493
I6
s(I54
I119
I8
tp7494
I4
s(I16
I86
I6
tp7495
I352
s(I63
I110
I3
tp7496
I25
s(I24
I122
I3
tp7497
I11
s(I11
I2
I5
tp7498
I1
s(I14
I115
I6
tp7499
I11
s(I26
I85
I9
tp7500
I166
s(I29
I105
I5
tp7501
I474
s(I28
I5
I2
tp7502
I9
s(I3
I121
I6
tp7503
I3687
s(I18
I121
I0
tp7504
I4400
s(I10
I0
I2
tp7505
I3
s(I10
I115
I8
tp7506
I5
s(I54
I106
I5
tp7507
I13
s(I30
I105
I6
tp7508
I473
s(I39
I121
I2
tp7509
I2
s(I51
I12
I3
tp7510
I1
s(I57
I3
I2
tp7511
I8
s(I60
I3
I5
tp7512
I4
s(I59
I16
I6
tp7513
I11
s(I21
I85
I0
tp7514
I46
s(I11
I105
I2
tp7515
I38
s(I45
I76
I0
tp7516
I1
s(I51
I103
I5
tp7517
I3
s(I1
I0
I9
tp7518
I1
s(I36
I5
I0
tp7519
I5
s(I60
I126
I0
tp7520
I6
s(I44
I1
I3
tp7521
I6
s(I35
I127
I5
tp7522
I1
s(I6
I106
I8
tp7523
I6
s(I19
I106
I0
tp7524
I185
s(I32
I118
I0
tp7525
I259
s(I29
I81
I9
tp7526
I5
s(I60
I7
I8
tp7527
I488
s(I56
I6
I2
tp7528
I6
s(I15
I94
I0
tp7529
I52
s(I5
I119
I0
tp7530
I22
s(I29
I14
I0
tp7531
I1
s(I57
I123
I0
tp7532
I1
s(I27
I123
I5
tp7533
I8
s(I30
I8
I0
tp7534
I210
s(I54
I104
I2
tp7535
I1
s(I19
I122
I5
tp7536
I1
s(I25
I22
I2
tp7537
I1
s(I47
I13
I3
tp7538
I3
s(I52
I104
I5
tp7539
I3
s(I55
I25
I0
tp7540
I24
s(I26
I104
I2
tp7541
I6
s(I55
I122
I9
tp7542
I2
s(I64
I6
I0
tp7543
I2335
s(I55
I96
I8
tp7544
I1
s(I48
I33
I3
tp7545
I2
s(I38
I19
I6
tp7546
I1
s(I47
I110
I0
tp7547
I445
s(I62
I120
I6
tp7548
I8
s(I1
I123
I3
tp7549
I3687
s(I7
I83
I5
tp7550
I59
s(I19
I118
I0
tp7551
I2218
s(I60
I5
I0
tp7552
I12
s(I12
I110
I3
tp7553
I3
s(I15
I36
I0
tp7554
I2
s(I46
I12
I3
tp7555
I4
s(I46
I101
I3
tp7556
I7
s(I33
I22
I0
tp7557
I6
s(I39
I127
I0
tp7558
I635
s(I51
I10
I5
tp7559
I8
s(I6
I101
I0
tp7560
I529
s(I43
I97
I6
tp7561
I1
s(I61
I112
I5
tp7562
I8
s(I19
I91
I5
tp7563
I1
s(I62
I31
I2
tp7564
I3
s(I62
I116
I3
tp7565
I5
s(I35
I3
I6
tp7566
I1
s(I26
I11
I0
tp7567
I13
s(I50
I16
I0
tp7568
I2001
s(I34
I124
I3
tp7569
I3
s(I62
I109
I9
tp7570
I2
s(I8
I121
I6
tp7571
I148
s(I23
I0
I3
tp7572
I143
s(I41
I118
I6
tp7573
I5
s(I28
I115
I0
tp7574
I925
s(I15
I98
I5
tp7575
I667
s(I18
I121
I9
tp7576
I21
s(I33
I119
I2
tp7577
I1927
s(I45
I8
I8
tp7578
I1
s(I20
I18
I0
tp7579
I13
s(I32
I14
I9
tp7580
I1
s(I37
I92
I3
tp7581
I6
s(I17
I119
I6
tp7582
I15
s(I12
I17
I0
tp7583
I97
s(I2
I124
I0
tp7584
I38
s(I45
I76
I9
tp7585
I2
s(I7
I110
I5
tp7586
I6
s(I35
I127
I8
tp7587
I9
s(I63
I34
I5
tp7588
I1
s(I50
I115
I6
tp7589
I2
s(I3
I117
I2
tp7590
I3
s(I62
I122
I8
tp7591
I2
s(I27
I101
I0
tp7592
I32
s(I27
I12
I6
tp7593
I1
s(I48
I111
I3
tp7594
I2
s(I23
I119
I8
tp7595
I8
s(I34
I122
I8
tp7596
I6
s(I62
I19
I0
tp7597
I2
s(I15
I125
I0
tp7598
I24
s(I52
I98
I0
tp7599
I1
s(I21
I104
I3
tp7600
I123
s(I47
I0
I3
tp7601
I1
s(I6
I12
I0
tp7602
I9
s(I37
I125
I5
tp7603
I7
s(I24
I114
I0
tp7604
I66
s(I11
I117
I6
tp7605
I14
s(I20
I113
I6
tp7606
I1
s(I7
I114
I0
tp7607
I1647
s(I62
I118
I5
tp7608
I66
s(I36
I114
I2
tp7609
I6
s(I50
I18
I6
tp7610
I6
s(I55
I7
I8
tp7611
I1
s(I45
I109
I9
tp7612
I984
s(I5
I0
I5
tp7613
I2
s(I51
I4
I2
tp7614
I1452
s(I41
I112
I0
tp7615
I1648
s(I14
I1
I8
tp7616
I1
s(I63
I122
I9
tp7617
I2
s(I24
I110
I5
tp7618
I6
s(I48
I11
I0
tp7619
I1939
s(I23
I8
I2
tp7620
I3
s(I9
I10
I0
tp7621
I2
s(I39
I5
I2
tp7622
I2
s(I26
I1
I5
tp7623
I1
s(I35
I2
I8
tp7624
I4
s(I19
I118
I9
tp7625
I3
s(I44
I9
I2
tp7626
I6
s(I19
I108
I8
tp7627
I1
s(I3
I110
I5
tp7628
I48
s(I35
I122
I8
tp7629
I1
s(I26
I108
I6
tp7630
I1
s(I7
I19
I6
tp7631
I1
s(I56
I126
I3
tp7632
I1
s(I59
I4
I0
tp7633
I21
s(I2
I7
I0
tp7634
I2
s.