(dp0
(I16
I16
I2
tp1
I1
s(I13
I16
I8
tp2
I877
s(I9
I25
I2
tp3
I1
s(I15
I13
I0
tp4
I1
s(I5
I12
I5
tp5
I3
s(I11
I23
I0
tp6
I4
s(I10
I24
I8
tp7
I393
s(I8
I18
I9
tp8
I481
s(I11
I8
I6
tp9
I4
s(I10
I10
I9
tp10
I9
s(I3
I15
I5
tp11
I1
s(I6
I13
I8
tp12
I11
s(I12
I22
I5
tp13
I8
s(I7
I6
I2
tp14
I1
s(I4
I21
I6
tp15
I774
s(I5
I13
I6
tp16
I2
s(I16
I13
I6
tp17
I975
s(I10
I20
I0
tp18
I8
s(I15
I16
I0
tp19
I5
s(I8
I7
I6
tp20
I8
s(I8
I17
I8
tp21
I425
s(I10
I13
I8
tp22
I1
s(I7
I17
I0
tp23
I2
s(I9
I22
I6
tp24
I9
s(I8
I10
I0
tp25
I13
s(I6
I22
I8
tp26
I465
s(I10
I8
I6
tp27
I5
s(I10
I5
I5
tp28
I14
s(I9
I18
I0
tp29
I3
s(I6
I21
I2
tp30
I10
s(I2
I14
I9
tp31
I7
s(I11
I21
I6
tp32
I9
s(I11
I24
I9
tp33
I391
s(I5
I19
I3
tp34
I1
s(I16
I17
I6
tp35
I40
s(I13
I14
I9
tp36
I421
s(I13
I15
I0
tp37
I10
s(I7
I21
I5
tp38
I481
s(I6
I7
I5
tp39
I3
s(I8
I6
I5
tp40
I2
s(I3
I18
I5
tp41
I2
s(I10
I25
I0
tp42
I4
s(I10
I18
I9
tp43
I479
s(I6
I17
I9
tp44
I382
s(I11
I17
I3
tp45
I5
s(I16
I8
I6
tp46
I1
s(I5
I23
I8
tp47
I4
s(I8
I23
I5
tp48
I10
s(I5
I15
I8
tp49
I1
s(I16
I11
I0
tp50
I485
s(I4
I12
I0
tp51
I4
s(I16
I16
I9
tp52
I2277
s(I9
I19
I6
tp53
I102
s(I3
I19
I6
tp54
I2
s(I6
I11
I5
tp55
I9
s(I12
I24
I0
tp56
I3
s(I10
I24
I3
tp57
I5
s(I10
I21
I8
tp58
I12
s(I3
I10
I2
tp59
I3
s(I15
I19
I8
tp60
I12
s(I7
I23
I2
tp61
I2
s(I9
I16
I0
tp62
I18
s(I14
I20
I0
tp63
I2
s(I10
I10
I0
tp64
I5
s(I9
I15
I8
tp65
I388
s(I6
I23
I0
tp66
I4
s(I8
I22
I6
tp67
I26
s(I6
I24
I9
tp68
I6
s(I14
I14
I0
tp69
I5
s(I16
I10
I3
tp70
I1
s(I9
I12
I2
tp71
I1
s(I13
I17
I2
tp72
I1
s(I8
I4
I3
tp73
I1
s(I10
I14
I5
tp74
I1
s(I13
I14
I8
tp75
I439
s(I15
I16
I9
tp76
I1399
s(I15
I14
I8
tp77
I437
s(I12
I13
I0
tp78
I6
s(I9
I8
I9
tp79
I3
s(I15
I11
I6
tp80
I1
s(I6
I13
I6
tp81
I10
s(I8
I21
I0
tp82
I5
s(I11
I16
I5
tp83
I475
s(I16
I9
I2
tp84
I3
s(I5
I22
I0
tp85
I14
s(I13
I18
I3
tp86
I405
s(I8
I14
I9
tp87
I2
s(I12
I9
I9
tp88
I16
s(I7
I24
I6
tp89
I7
s(I5
I13
I8
tp90
I11
s(I5
I24
I3
tp91
I5
s(I16
I12
I8
tp92
I1285
s(I16
I18
I9
tp93
I476
s(I4
I16
I2
tp94
I1
s(I9
I18
I2
tp95
I3
s(I14
I13
I9
tp96
I418
s(I14
I22
I6
tp97
I10
s(I5
I10
I6
tp98
I1
s(I16
I21
I5
tp99
I2
s(I9
I23
I8
tp100
I4
s(I6
I12
I5
tp101
I5
s(I14
I21
I8
tp102
I8
s(I11
I7
I8
tp103
I7
s(I6
I17
I6
tp104
I381
s(I8
I20
I0
tp105
I5
s(I9
I14
I0
tp106
I6
s(I7
I18
I8
tp107
I459
s(I8
I13
I8
tp108
I1
s(I14
I18
I3
tp109
I1
s(I5
I14
I9
tp110
I5
s(I16
I11
I9
tp111
I881
s(I16
I17
I8
tp112
I47
s(I4
I23
I3
tp113
I7
s(I8
I16
I5
tp114
I445
s(I11
I22
I6
tp115
I10
s(I10
I15
I3
tp116
I5
s(I4
I8
I9
tp117
I1
s(I16
I20
I2
tp118
I1
s(I9
I16
I9
tp119
I438
s(I12
I14
I8
tp120
I398
s(I11
I4
I9
tp121
I5
s(I6
I16
I5
tp122
I769
s(I14
I14
I8
tp123
I20
s(I11
I11
I0
tp124
I5
s(I4
I11
I5
tp125
I6
s(I10
I17
I3
tp126
I4
s(I13
I9
I6
tp127
I1
s(I13
I20
I5
tp128
I11
s(I3
I24
I3
tp129
I1
s(I8
I22
I9
tp130
I27
s(I5
I15
I6
tp131
I1
s(I10
I3
I6
tp132
I2
s(I5
I21
I8
tp133
I421
s(I4
I22
I0
tp134
I9
s(I15
I13
I5
tp135
I445
s(I5
I12
I0
tp136
I7
s(I2
I15
I8
tp137
I7
s(I16
I19
I3
tp138
I2
s(I13
I24
I0
tp139
I1
s(I12
I13
I9
tp140
I11
s(I6
I14
I3
tp141
I1
s(I14
I9
I9
tp142
I21
s(I4
I10
I6
tp143
I4
s(I10
I16
I0
tp144
I8
s(I9
I8
I6
tp145
I3
s(I13
I21
I6
tp146
I8
s(I8
I21
I8
tp147
I813
s(I11
I13
I9
tp148
I7
s(I10
I9
I8
tp149
I2
s(I5
I22
I9
tp150
I456
s(I7
I13
I0
tp151
I7
s(I8
I14
I0
tp152
I7
s(I6
I10
I8
tp153
I8
s(I8
I14
I8
tp154
I2
s(I14
I19
I5
tp155
I4
s(I5
I13
I3
tp156
I1
s(I16
I18
I0
tp157
I412
s(I9
I4
I5
tp158
I2
s(I4
I16
I9
tp159
I1
s(I15
I15
I2
tp160
I2
s(I6
I9
I2
tp161
I1
s(I8
I17
I3
tp162
I36
s(I13
I13
I3
tp163
I1
s(I4
I6
I6
tp164
I1
s(I9
I9
I5
tp165
I5
s(I14
I15
I0
tp166
I9
s(I11
I10
I8
tp167
I8
s(I7
I25
I8
tp168
I360
s(I6
I21
I9
tp169
I491
s(I5
I14
I2
tp170
I1
s(I11
I21
I3
tp171
I1
s(I13
I15
I5
tp172
I919
s(I7
I15
I9
tp173
I1
s(I9
I24
I5
tp174
I365
s(I6
I7
I8
tp175
I4
s(I15
I12
I3
tp176
I1
s(I3
I18
I0
tp177
I2
s(I16
I15
I0
tp178
I481
s(I4
I8
I0
tp179
I2
s(I10
I18
I6
tp180
I528
s(I13
I23
I8
tp181
I1
s(I14
I21
I6
tp182
I7
s(I12
I20
I0
tp183
I8
s(I6
I26
I5
tp184
I357
s(I10
I17
I8
tp185
I440
s(I13
I9
I9
tp186
I19
s(I7
I19
I2
tp187
I4
s(I15
I21
I9
tp188
I390
s(I8
I12
I6
tp189
I9
s(I14
I24
I0
tp190
I1
s(I4
I12
I5
tp191
I10
s(I10
I22
I3
tp192
I3
s(I7
I12
I8
tp193
I10
s(I9
I25
I6
tp194
I28
s(I6
I11
I0
tp195
I11
s(I16
I14
I3
tp196
I6
s(I3
I10
I9
tp197
I2
s(I8
I8
I3
tp198
I1
s(I14
I20
I5
tp199
I7
s(I7
I16
I3
tp200
I6
s(I9
I21
I3
tp201
I1
s(I6
I24
I2
tp202
I2
s(I9
I12
I9
tp203
I4
s(I4
I24
I5
tp204
I5
s(I9
I7
I0
tp205
I3
s(I16
I13
I2
tp206
I1
s(I5
I18
I0
tp207
I4
s(I4
I14
I2
tp208
I1
s(I13
I14
I3
tp209
I5
s(I6
I4
I0
tp210
I1
s(I5
I9
I8
tp211
I2
s(I16
I22
I9
tp212
I1
s(I7
I10
I5
tp213
I9
s(I13
I21
I8
tp214
I9
s(I9
I22
I2
tp215
I2
s(I11
I16
I0
tp216
I6
s(I10
I8
I2
tp217
I4
s(I10
I5
I9
tp218
I9
s(I7
I7
I5
tp219
I5
s(I13
I18
I6
tp220
I81
s(I8
I24
I0
tp221
I1
s(I2
I14
I5
tp222
I7
s(I16
I12
I5
tp223
I868
s(I8
I14
I5
tp224
I3
s(I4
I13
I3
tp225
I3
s(I10
I26
I2
tp226
I1
s(I10
I23
I5
tp227
I9
s(I6
I8
I8
tp228
I9
s(I14
I22
I3
tp229
I9
s(I5
I10
I9
tp230
I5
s(I5
I5
I0
tp231
I6
s(I16
I15
I9
tp232
I4033
s(I16
I21
I8
tp233
I7
s(I4
I19
I3
tp234
I3
s(I13
I22
I9
tp235
I378
s(I7
I22
I5
tp236
I27
s(I9
I23
I5
tp237
I7
s(I8
I9
I5
tp238
I10
s(I12
I15
I6
tp239
I903
s(I10
I11
I3
tp240
I2
s(I16
I8
I2
tp241
I1
s(I9
I20
I9
tp242
I896
s(I12
I10
I8
tp243
I1
s(I12
I16
I9
tp244
I21
s(I14
I18
I8
tp245
I16
s(I11
I15
I0
tp246
I7
s(I5
I20
I6
tp247
I4
s(I9
I6
I8
tp248
I9
s(I12
I19
I5
tp249
I418
s(I6
I11
I9
tp250
I4
s(I5
I17
I8
tp251
I2
s(I4
I18
I0
tp252
I3
s(I3
I10
I6
tp253
I3
s(I13
I23
I6
tp254
I1
s(I7
I23
I6
tp255
I12
s(I12
I14
I5
tp256
I397
s(I5
I8
I0
tp257
I8
s(I4
I11
I8
tp258
I4
s(I10
I17
I6
tp259
I440
s(I13
I20
I0
tp260
I3
s(I2
I16
I0
tp261
I1
s(I12
I23
I8
tp262
I19
s(I8
I22
I2
tp263
I1
s(I11
I25
I9
tp264
I1
s(I5
I21
I5
tp265
I10
s(I9
I25
I8
tp266
I27
s(I8
I15
I6
tp267
I11
s(I12
I18
I6
tp268
I1604
s(I2
I15
I3
tp269
I3
s(I5
I18
I9
tp270
I9
s(I4
I4
I6
tp271
I1
s(I3
I11
I5
tp272
I1
s(I7
I9
I0
tp273
I13
s(I5
I9
I3
tp274
I1
s(I5
I4
I8
tp275
I1
s(I16
I22
I0
tp276
I3
s(I10
I16
I5
tp277
I433
s(I9
I17
I8
tp278
I470
s(I13
I21
I3
tp279
I1
s(I6
I13
I2
tp280
I1
s(I8
I21
I3
tp281
I6
s(I11
I13
I6
tp282
I1
s(I3
I7
I6
tp283
I1
s(I7
I13
I5
tp284
I5
s(I15
I20
I8
tp285
I12
s(I7
I24
I2
tp286
I2
s(I14
I19
I0
tp287
I4
s(I11
I14
I8
tp288
I1
s(I7
I21
I8
tp289
I858
s(I9
I18
I6
tp290
I826
s(I8
I6
I8
tp291
I3
s(I6
I18
I0
tp292
I4
s(I5
I10
I2
tp293
I1
s(I10
I12
I6
tp294
I5
s(I4
I6
I3
tp295
I1
s(I4
I19
I8
tp296
I14
s(I7
I11
I9
tp297
I2
s(I13
I22
I2
tp298
I1
s(I3
I22
I0
tp299
I1
s(I4
I20
I3
tp300
I3
s(I7
I25
I5
tp301
I7
s(I12
I16
I0
tp302
I4
s(I11
I21
I8
tp303
I9
s(I7
I15
I2
tp304
I1
s(I9
I24
I0
tp305
I3
s(I7
I26
I9
tp306
I2
s(I11
I3
I9
tp307
I5
s(I5
I11
I5
tp308
I3
s(I11
I22
I2
tp309
I2
s(I16
I20
I6
tp310
I795
s(I10
I18
I3
tp311
I2
s(I7
I8
I8
tp312
I3
s(I15
I18
I5
tp313
I15
s(I6
I15
I0
tp314
I22
s(I12
I20
I5
tp315
I10
s(I8
I19
I5
tp316
I481
s(I3
I14
I9
tp317
I12
s(I8
I12
I3
tp318
I2
s(I11
I18
I9
tp319
I905
s(I11
I25
I0
tp320
I1
s(I16
I16
I3
tp321
I2
s(I10
I22
I8
tp322
I10
s(I7
I12
I3
tp323
I1
s(I9
I25
I3
tp324
I2
s(I14
I16
I8
tp325
I897
s(I10
I24
I9
tp326
I390
s(I9
I11
I0
tp327
I9
s(I15
I19
I6
tp328
I16
s(I7
I23
I8
tp329
I9
s(I15
I14
I5
tp330
I482
s(I14
I13
I3
tp331
I4
s(I8
I18
I6
tp332
I477
s(I4
I10
I2
tp333
I4
s(I4
I7
I9
tp334
I1
s(I7
I16
I6
tp335
I29
s(I4
I24
I2
tp336
I1
s(I4
I21
I5
tp337
I381
s(I9
I26
I2
tp338
I1
s(I14
I19
I9
tp339
I11
s(I11
I20
I0
tp340
I6
s(I16
I13
I5
tp341
I930
s(I7
I20
I9
tp342
I68
s(I15
I15
I6
tp343
I1327
s(I3
I21
I5
tp344
I8
s(I6
I9
I6
tp345
I2
s(I4
I9
I3
tp346
I10
s(I10
I6
I2
tp347
I1
s(I9
I22
I5
tp348
I12
s(I3
I22
I9
tp349
I1
s(I6
I12
I8
tp350
I1
s(I6
I22
I9
tp351
I837
s(I13
I18
I9
tp352
I1283
s(I6
I21
I5
tp353
I1203
s(I8
I24
I5
tp354
I7
s(I11
I14
I6
tp355
I10
s(I5
I14
I6
tp356
I3
s(I16
I12
I2
tp357
I2
s(I11
I24
I8
tp358
I23
s(I16
I17
I5
tp359
I46
s(I10
I23
I0
tp360
I3
s(I15
I17
I0
tp361
I1
s(I7
I21
I6
tp362
I480
s(I12
I12
I9
tp363
I13
s(I6
I8
I5
tp364
I4
s(I12
I19
I9
tp365
I418
s(I10
I12
I8
tp366
I5
s(I10
I25
I3
tp367
I2
s(I4
I19
I6
tp368
I22
s(I13
I12
I5
tp369
I3
s(I7
I22
I0
tp370
I16
s(I9
I23
I2
tp371
I1
s(I8
I9
I0
tp372
I7
s(I6
I15
I9
tp373
I1
s(I6
I17
I8
tp374
I8
s(I5
I23
I9
tp375
I406
s(I15
I21
I5
tp376
I400
s(I6
I20
I6
tp377
I433
s(I11
I15
I5
tp378
I852
s(I6
I25
I5
tp379
I8
s(I11
I18
I6
tp380
I967
s(I16
I11
I3
tp381
I5
s(I9
I6
I3
tp382
I1
s(I13
I16
I0
tp383
I4
s(I15
I15
I0
tp384
I8
s(I15
I13
I8
tp385
I417
s(I12
I19
I8
tp386
I25
s(I10
I15
I9
tp387
I834
s(I10
I24
I0
tp388
I3
s(I4
I18
I5
tp389
I4
s(I13
I13
I6
tp390
I399
s(I15
I19
I9
tp391
I12
s(I9
I16
I3
tp392
I3
s(I10
I7
I6
tp393
I5
s(I13
I13
I9
tp394
I24
s(I9
I15
I9
tp395
I391
s(I7
I5
I0
tp396
I1
s(I3
I24
I9
tp397
I1
s(I6
I24
I6
tp398
I7
s(I11
I19
I5
tp399
I1279
s(I16
I10
I0
tp400
I435
s(I15
I9
I9
tp401
I17
s(I13
I17
I3
tp402
I823
s(I3
I16
I6
tp403
I1
s(I8
I25
I3
tp404
I5
s(I10
I14
I6
tp405
I1
s(I13
I12
I9
tp406
I18
s(I10
I20
I8
tp407
I491
s(I15
I16
I8
tp408
I1386
s(I7
I20
I2
tp409
I13
s(I9
I17
I0
tp410
I14
s(I14
I23
I0
tp411
I2
s(I10
I13
I0
tp412
I9
s(I9
I23
I6
tp413
I8
s(I9
I8
I8
tp414
I4
s(I6
I22
I0
tp415
I13
s(I8
I21
I6
tp416
I814
s(I9
I13
I6
tp417
I4
s(I13
I18
I2
tp418
I5
s(I7
I24
I5
tp419
I8
s(I5
I13
I9
tp420
I11
s(I16
I12
I9
tp421
I1324
s(I10
I23
I9
tp422
I8
s(I4
I16
I3
tp423
I1
s(I12
I7
I9
tp424
I20
s(I15
I15
I8
tp425
I1333
s(I12
I12
I0
tp426
I4
s(I6
I18
I5
tp427
I911
s(I8
I20
I9
tp428
I902
s(I10
I12
I3
tp429
I2
s(I9
I23
I9
tp430
I7
s(I11
I7
I9
tp431
I14
s(I5
I23
I0
tp432
I8
s(I4
I20
I8
tp433
I1
s(I13
I19
I5
tp434
I17
s(I5
I14
I8
tp435
I5
s(I16
I11
I8
tp436
I844
s(I4
I12
I8
tp437
I11
s(I4
I23
I2
tp438
I9
s(I3
I9
I0
tp439
I1
s(I15
I12
I9
tp440
I28
s(I14
I17
I6
tp441
I848
s(I12
I24
I8
tp442
I1
s(I8
I16
I6
tp443
I412
s(I11
I22
I9
tp444
I11
s(I10
I15
I2
tp445
I1
s(I16
I20
I3
tp446
I8
s(I7
I8
I3
tp447
I1
s(I13
I23
I2
tp448
I1
s(I9
I16
I8
tp449
I428
s(I12
I14
I9
tp450
I18
s(I14
I20
I8
tp451
I9
s(I14
I14
I9
tp452
I444
s(I10
I17
I2
tp453
I1
s(I9
I15
I0
tp454
I10
s(I7
I19
I8
tp455
I809
s(I8
I12
I8
tp456
I5
s(I14
I18
I9
tp457
I23
s(I14
I13
I5
tp458
I397
s(I10
I3
I5
tp459
I2
s(I5
I21
I9
tp460
I426
s(I15
I13
I6
tp461
I445
s(I12
I18
I2
tp462
I7
s(I14
I16
I5
tp463
I461
s(I16
I19
I2
tp464
I1
s(I9
I11
I5
tp465
I12
s(I15
I14
I0
tp466
I1
s(I3
I20
I5
tp467
I1
s(I12
I13
I8
tp468
I1
s(I6
I19
I3
tp469
I6
s(I8
I18
I3
tp470
I3
s(I7
I16
I9
tp471
I381
s(I8
I11
I9
tp472
I5
s(I14
I12
I6
tp473
I3
s(I5
I22
I8
tp474
I455
s(I4
I21
I0
tp475
I14
s(I12
I17
I3
tp476
I5
s(I6
I10
I9
tp477
I7
s(I5
I13
I0
tp478
I15
s(I4
I14
I8
tp479
I16
s(I7
I14
I5
tp480
I2
s(I15
I15
I3
tp481
I5
s(I8
I17
I2
tp482
I20
s(I4
I9
I6
tp483
I13
s(I10
I19
I0
tp484
I8
s(I9
I9
I2
tp485
I1
s(I13
I22
I6
tp486
I397
s(I8
I20
I8
tp487
I963
s(I10
I8
I8
tp488
I6
s(I10
I5
I3
tp489
I2
s(I7
I18
I0
tp490
I2
s(I8
I13
I0
tp491
I8
s(I7
I25
I9
tp492
I358
s(I6
I21
I8
tp493
I455
s(I11
I24
I3
tp494
I4
s(I4
I13
I9
tp495
I17
s(I16
I17
I0
tp496
I432
s(I13
I15
I6
tp497
I933
s(I15
I12
I2
tp498
I1
s(I16
I15
I3
tp499
I13
s(I5
I16
I5
tp500
I2
s(I10
I25
I6
tp501
I2
s(I4
I5
I6
tp502
I1
s(I9
I10
I3
tp503
I1
s(I13
I12
I0
tp504
I1
s(I9
I17
I3
tp505
I4
s(I13
I23
I9
tp506
I20
s(I8
I19
I9
tp507
I836
s(I10
I11
I9
tp508
I9
s(I3
I14
I5
tp509
I17
s(I7
I19
I3
tp510
I1
s(I9
I20
I3
tp511
I5
s(I12
I10
I6
tp512
I1
s(I12
I23
I5
tp513
I396
s(I4
I12
I6
tp514
I19
s(I9
I6
I6
tp515
I8
s(I4
I22
I8
tp516
I59
s(I16
I14
I0
tp517
I404
s(I5
I17
I6
tp518
I2
s(I4
I15
I0
tp519
I7
s(I10
I24
I5
tp520
I394
s(I10
I21
I6
tp521
I14
s(I3
I10
I8
tp522
I3
s(I11
I5
I6
tp523
I5
s(I11
I8
I9
tp524
I16
s(I10
I16
I8
tp525
I481
s(I3
I15
I6
tp526
I2
s(I9
I21
I0
tp527
I5
s(I8
I11
I6
tp528
I2
s(I12
I22
I6
tp529
I378
s(I6
I24
I3
tp530
I4
s(I10
I9
I0
tp531
I6
s(I4
I24
I6
tp532
I6
s(I4
I21
I9
tp533
I385
s(I6
I10
I0
tp534
I10
s(I4
I14
I3
tp535
I1
s(I10
I20
I5
tp536
I798
s(I13
I14
I2
tp537
I1
s(I15
I16
I3
tp538
I9
s(I8
I7
I5
tp539
I8
s(I5
I9
I9
tp540
I8
s(I10
I19
I9
tp541
I845
s(I13
I21
I9
tp542
I12
s(I7
I17
I5
tp543
I460
s(I15
I11
I8
tp544
I4
s(I8
I10
I5
tp545
I3
s(I10
I8
I3
tp546
I4
s(I10
I5
I8
tp547
I12
s(I13
I18
I5
tp548
I410
s(I2
I14
I6
tp549
I6
s(I5
I24
I9
tp550
I1
s(I16
I12
I6
tp551
I890
s(I5
I19
I0
tp552
I3
s(I4
I13
I2
tp553
I3
s(I7
I21
I2
tp554
I1
s(I6
I7
I0
tp555
I6
s(I8
I6
I6
tp556
I2
s(I6
I8
I9
tp557
I10
s(I5
I10
I8
tp558
I4
s(I2
I13
I0
tp559
I1
s(I16
I15
I8
tp560
I3567
s(I3
I13
I0
tp561
I2
s(I13
I22
I8
tp562
I393
s(I15
I8
I9
tp563
I10
s(I12
I20
I8
tp564
I8
s(I11
I17
I0
tp565
I10
s(I10
I11
I2
tp566
I1
s(I16
I8
I3
tp567
I1
s(I5
I23
I5
tp568
I6
s(I13
I19
I2
tp569
I1
s(I9
I20
I8
tp570
I1591
s(I12
I10
I9
tp571
I14
s(I6
I20
I2
tp572
I1
s(I8
I23
I0
tp573
I3
s(I6
I25
I9
tp574
I3
s(I13
I17
I8
tp575
I447
s(I3
I9
I5
tp576
I2
s(I7
I26
I3
tp577
I2
s(I9
I19
I3
tp578
I5
s(I6
I11
I8
tp579
I2
s(I5
I6
I0
tp580
I7
s(I5
I17
I9
tp581
I9
s(I16
I20
I8
tp582
I795
s(I12
I14
I2
tp583
I1
s(I5
I8
I3
tp584
I2
s(I10
I10
I5
tp585
I15
s(I4
I22
I9
tp586
I57
s(I13
I20
I3
tp587
I2
s(I6
I23
I3
tp588
I6
s(I14
I13
I8
tp589
I22
s(I11
I12
I0
tp590
I8
s(I5
I21
I2
tp591
I4
s(I9
I25
I9
tp592
I27
s(I8
I15
I9
tp593
I2
s(I2
I15
I2
tp594
I2
s(I5
I18
I8
tp595
I3
s(I16
I19
I9
tp596
I434
s(I4
I17
I0
tp597
I6
s(I3
I11
I2
tp598
I1
s(I7
I20
I6
tp599
I457
s(I12
I13
I3
tp600
I1
s(I5
I9
I0
tp601
I8
s(I4
I10
I8
tp602
I7
s(I13
I21
I0
tp603
I5
s(I6
I13
I5
tp604
I4
s(I12
I22
I8
tp605
I5
s(I5
I22
I3
tp606
I8
s(I9
I13
I2
tp607
I1
s(I12
I17
I6
tp608
I58
s(I8
I24
I8
tp609
I8
s(I7
I14
I0
tp610
I8
s(I7
I21
I9
tp611
I1192
s(I9
I18
I5
tp612
I429
s(I8
I6
I9
tp613
I3
s(I5
I5
I8
tp614
I1
s(I4
I9
I9
tp615
I10
s(I16
I21
I0
tp616
I3
s(I6
I12
I6
tp617
I1
s(I12
I21
I9
tp618
I8
s(I6
I17
I5
tp619
I764
s(I8
I20
I5
tp620
I1273
s(I11
I10
I6
tp621
I8
s(I7
I25
I6
tp622
I8
s(I14
I18
I0
tp623
I3
s(I11
I15
I8
tp624
I853
s(I11
I21
I9
tp625
I12
s(I4
I23
I6
tp626
I33
s(I9
I24
I3
tp627
I1
s(I8
I16
I2
tp628
I2
s(I11
I22
I5
tp629
I10
s(I5
I6
I9
tp630
I1
s(I16
I15
I6
tp631
I2689
s(I10
I15
I6
tp632
I838
s(I4
I18
I8
tp633
I3
s(I12
I20
I6
tp634
I3
s(I6
I16
I6
tp635
I386
s(I4
I11
I0
tp636
I3
s(I3
I14
I8
tp637
I9
s(I9
I20
I6
tp638
I1276
s(I12
I23
I0
tp639
I3
s(I11
I12
I9
tp640
I10
s(I11
I18
I8
tp641
I1316
s(I10
I22
I9
tp642
I10
s(I4
I22
I5
tp643
I452
s(I9
I25
I0
tp644
I1
s(I15
I13
I2
tp645
I1
s(I14
I16
I9
tp646
I1331
s(I11
I23
I6
tp647
I374
s(I16
I14
I5
tp648
I939
s(I16
I19
I6
tp649
I421
s(I7
I23
I9
tp650
I5
s(I6
I14
I0
tp651
I22
s(I4
I10
I3
tp652
I3
s(I4
I7
I8
tp653
I2
s(I9
I8
I5
tp654
I4
s(I7
I16
I5
tp655
I424
s(I9
I21
I5
tp656
I399
s(I12
I22
I3
tp657
I2
s(I13
I9
I8
tp658
I1
s(I13
I17
I9
tp659
I109
s(I6
I10
I5
tp660
I3
s(I8
I25
I9
tp661
I397
s(I14
I19
I8
tp662
I11
s(I16
I18
I5
tp663
I36
s(I15
I16
I6
tp664
I876
s(I7
I20
I8
tp665
I99
s(I3
I21
I6
tp666
I2
s(I6
I18
I8
tp667
I12
s(I8
I17
I6
tp668
I399
s(I10
I6
I3
tp669
I6
s(I9
I9
I6
tp670
I4
s(I7
I17
I2
tp671
I4
s(I3
I22
I8
tp672
I5
s(I6
I12
I9
tp673
I2
s(I12
I21
I2
tp674
I1
s(I14
I15
I3
tp675
I3
s(I13
I8
I9
tp676
I20
s(I13
I18
I8
tp677
I895
s(I8
I24
I6
tp678
I8
s(I5
I14
I5
tp679
I1
s(I11
I21
I0
tp680
I6
s(I16
I12
I3
tp681
I8
s(I13
I17
I5
tp682
I1387
s(I15
I12
I6
tp683
I408
s(I10
I12
I9
tp684
I7
s(I4
I8
I5
tp685
I7
s(I7
I22
I3
tp686
I3
s(I14
I21
I5
tp687
I390
s(I11
I17
I5
tp688
I845
s(I16
I8
I8
tp689
I1
s(I15
I21
I6
tp690
I396
s(I12
I10
I2
tp691
I1
s(I16
I11
I2
tp692
I2
s(I4
I12
I2
tp693
I2
s(I10
I22
I0
tp694
I4
s(I9
I6
I2
tp695
I2
s(I13
I16
I3
tp696
I5
s(I15
I22
I0
tp697
I1
s(I7
I26
I6
tp698
I714
s(I9
I19
I8
tp699
I77
s(I15
I13
I9
tp700
I434
s(I6
I11
I3
tp701
I3
s(I10
I15
I8
tp702
I834
s(I9
I11
I8
tp703
I8
s(I2
I15
I5
tp704
I11
s(I7
I23
I0
tp705
I3
s(I9
I16
I2
tp706
I3
s(I8
I8
I0
tp707
I5
s(I14
I20
I6
tp708
I12
s(I6
I16
I8
tp709
I9
s(I5
I8
I6
tp710
I9
s(I10
I7
I5
tp711
I10
s(I3
I15
I2
tp712
I1
s(I3
I24
I8
tp713
I1
s(I6
I23
I6
tp714
I4
s(I13
I6
I9
tp715
I10
s(I13
I17
I0
tp716
I3
s(I12
I18
I8
tp717
I894
s(I8
I25
I2
tp718
I2
s(I10
I20
I9
tp719
I900
s(I13
I14
I6
tp720
I440
s(I6
I19
I9
tp721
I453
s(I5
I9
I5
tp722
I4
s(I10
I13
I3
tp723
I2
s(I3
I12
I3
tp724
I1
s(I7
I10
I0
tp725
I13
s(I8
I21
I5
tp726
I484
s(I11
I16
I3
tp727
I3
s(I16
I9
I0
tp728
I418
s(I7
I7
I6
tp729
I5
s(I12
I17
I9
tp730
I427
s(I16
I7
I3
tp731
I1
s(I4
I13
I6
tp732
I25
s(I10
I23
I8
tp733
I9
s(I15
I17
I8
tp734
I406
s(I15
I15
I9
tp735
I1358
s(I14
I22
I0
tp736
I1
s(I6
I18
I6
tp737
I456
s(I11
I9
I9
tp738
I6
s(I10
I12
I0
tp739
I11
s(I9
I9
I8
tp740
I5
s(I3
I22
I6
tp741
I10
s(I12
I15
I5
tp742
I903
s(I6
I17
I0
tp743
I1
s(I8
I20
I2
tp744
I1
s(I4
I20
I9
tp745
I2
s(I13
I19
I6
tp746
I11
s(I7
I25
I3
tp747
I8
s(I14
I18
I5
tp748
I12
s(I5
I20
I5
tp749
I5
s(I4
I12
I9
tp750
I9
s(I15
I11
I9
tp751
I23
s(I15
I22
I9
tp752
I10
s(I15
I12
I8
tp753
I12
s(I12
I19
I0
tp754
I10
s(I12
I24
I9
tp755
I1
s(I5
I11
I3
tp756
I1
s(I11
I22
I8
tp757
I12
s(I13
I10
I9
tp758
I17
s(I9
I10
I9
tp759
I1
s(I7
I8
I2
tp760
I2
s(I3
I23
I5
tp761
I6
s(I12
I14
I6
tp762
I392
s(I14
I20
I9
tp763
I12
s(I8
I19
I3
tp764
I15
s(I10
I17
I5
tp765
I482
s(I7
I19
I9
tp766
I422
s(I8
I12
I9
tp767
I6
s(I16
I10
I8
tp768
I15
s(I5
I21
I6
tp769
I378
s(I3
I6
I0
tp770
I1
s(I8
I15
I5
tp771
I390
s(I12
I18
I3
tp772
I15
s(I5
I12
I2
tp773
I1
s(I2
I15
I6
tp774
I15
s(I9
I11
I6
tp775
I10
s(I3
I11
I6
tp776
I1
s(I7
I9
I5
tp777
I2
s(I15
I14
I3
tp778
I3
s(I11
I5
I8
tp779
I5
s(I8
I18
I0
tp780
I4
s(I10
I16
I6
tp781
I481
s(I9
I8
I0
tp782
I4
s(I7
I10
I9
tp783
I3
s(I7
I16
I8
tp784
I389
s(I8
I11
I8
tp785
I5
s(I16
I9
I9
tp786
I18
s(I4
I24
I8
tp787
I3
s(I8
I14
I6
tp788
I3
s(I8
I23
I9
tp789
I8
s(I12
I17
I2
tp790
I2
s(I14
I19
I3
tp791
I2
s(I4
I14
I9
tp792
I17
s(I9
I18
I9
tp793
I432
s(I4
I9
I5
tp794
I14
s(I10
I6
I8
tp795
I1
s(I13
I22
I5
tp796
I398
s(I14
I15
I6
tp797
I919
s(I10
I8
I9
tp798
I10
s(I7
I7
I8
tp799
I4
s(I4
I20
I0
tp800
I15
s(I7
I18
I3
tp801
I12
s(I12
I16
I5
tp802
I851
s(I5
I14
I0
tp803
I17
s(I11
I24
I2
tp804
I1
s(I4
I13
I8
tp805
I21
s(I3
I9
I8
tp806
I1
s(I14
I11
I9
tp807
I17
s(I16
I15
I2
tp808
I8
s(I10
I25
I9
tp809
I1
s(I4
I5
I5
tp810
I1
s(I10
I18
I0
tp811
I14
s(I13
I12
I3
tp812
I1
s(I15
I18
I0
tp813
I1
s(I11
I23
I5
tp814
I374
s(I6
I15
I3
tp815
I2
s(I8
I19
I8
tp816
I846
s(I11
I11
I9
tp817
I10
s(I10
I11
I8
tp818
I4
s(I7
I19
I0
tp819
I4
s(I9
I20
I2
tp820
I2
s(I8
I12
I0
tp821
I9
s(I6
I20
I8
tp822
I393
s(I6
I25
I3
tp823
I2
s(I5
I11
I6
tp824
I8
s(I16
I16
I0
tp825
I488
s(I10
I22
I5
tp826
I8
s(I9
I6
I5
tp827
I7
s(I13
I16
I6
tp828
I873
s(I7
I12
I6
tp829
I11
s(I4
I15
I3
tp830
I1
s(I13
I13
I0
tp831
I5
s(I8
I8
I5
tp832
I2
s(I11
I8
I8
tp833
I4
s(I8
I17
I0
tp834
I5
s(I10
I7
I0
tp835
I1
s(I10
I16
I9
tp836
I480
s(I6
I23
I9
tp837
I27
s(I6
I24
I0
tp838
I1
s(I10
I9
I3
tp839
I2
s(I7
I6
I0
tp840
I4
s(I9
I7
I2
tp841
I1
s(I4
I21
I8
tp842
I387
s(I3
I16
I0
tp843
I3
s(I11
I20
I3
tp844
I4
s(I5
I7
I9
tp845
I1
s(I16
I13
I0
tp846
I478
s(I5
I18
I6
tp847
I3
s(I4
I14
I0
tp848
I9
s(I10
I20
I2
tp849
I2
s(I10
I19
I8
tp850
I1250
s(I13
I11
I9
tp851
I15
s(I7
I17
I6
tp852
I53
s(I9
I22
I0
tp853
I4
s(I8
I10
I2
tp854
I1
s(I12
I21
I6
tp855
I8
s(I9
I13
I8
tp856
I4
s(I6
I21
I0
tp857
I16
s(I8
I24
I2
tp858
I1
s(I11
I14
I5
tp859
I10
s(I15
I17
I5
tp860
I476
s(I7
I21
I3
tp861
I16
s(I6
I8
I6
tp862
I6
s(I4
I19
I5
tp863
I7
s(I15
I18
I9
tp864
I20
s(I8
I9
I3
tp865
I2
s(I12
I15
I0
tp866
I8
s(I12
I20
I9
tp867
I11
s(I5
I23
I6
tp868
I9
s(I9
I14
I9
tp869
I1
s(I13
I19
I3
tp870
I1
s(I15
I21
I2
tp871
I1
s(I6
I20
I3
tp872
I15
s(I8
I23
I3
tp873
I1
s(I11
I15
I6
tp874
I853
s(I6
I25
I8
tp875
I3
s(I11
I18
I5
tp876
I501
s(I16
I11
I6
tp877
I844
s(I5
I20
I0
tp878
I15
s(I3
I9
I6
tp879
I5
s(I7
I26
I2
tp880
I2
s(I6
I6
I0
tp881
I6
s(I8
I5
I6
tp882
I1
s(I5
I11
I8
tp883
I8
s(I16
I14
I8
tp884
I1373
s(I16
I20
I9
tp885
I795
s(I4
I18
I6
tp886
I4
s(I7
I8
I5
tp887
I1
s(I9
I16
I6
tp888
I426
s(I14
I20
I2
tp889
I1
s(I10
I10
I6
tp890
I10
s(I10
I7
I9
tp891
I8
s(I13
I20
I2
tp892
I1
s(I9
I21
I8
tp893
I30
s(I6
I23
I2
tp894
I5
s(I8
I22
I0
tp895
I6
s(I11
I19
I6
tp896
I813
s(I16
I10
I5
tp897
I15
s(I5
I21
I3
tp898
I11
s(I9
I12
I0
tp899
I8
s(I9
I7
I9
tp900
I1
s(I8
I15
I8
tp901
I11
s(I8
I25
I6
tp902
I422
s(I5
I12
I9
tp903
I4
s(I5
I7
I0
tp904
I3
s(I16
I13
I9
tp905
I1447
s(I16
I19
I8
tp906
I425
s(I7
I20
I5
tp907
I1270
s(I9
I17
I5
tp908
I27
s(I4
I10
I9
tp909
I9
s(I4
I7
I2
tp910
I2
s(I9
I22
I9
tp911
I8
s(I12
I22
I9
tp912
I6
s(I11
I6
I9
tp913
I13
s(I6
I22
I5
tp914
I509
s(I14
I12
I8
tp915
I3
s(I11
I13
I0
tp916
I10
s(I5
I22
I2
tp917
I2
s(I15
I20
I6
tp918
I9
s(I7
I24
I0
tp919
I2
s(I12
I17
I5
tp920
I106
s(I8
I24
I9
tp921
I9
s(I5
I19
I8
tp922
I5
s(I4
I23
I5
tp923
I118
s(I4
I16
I0
tp924
I5
s(I7
I14
I3
tp925
I1
s(I5
I10
I0
tp926
I9
s(I5
I5
I9
tp927
I2
s(I4
I9
I8
tp928
I19
s(I13
I22
I0
tp929
I3
s(I12
I15
I9
tp930
I55
s(I12
I21
I8
tp931
I11
s(I4
I14
I6
tp932
I9
s(I8
I20
I6
tp933
I958
s(I11
I17
I8
tp934
I443
s(I4
I20
I5
tp935
I4
s(I7
I18
I6
tp936
I29
s(I8
I23
I8
tp937
I8
s(I11
I15
I9
tp938
I851
s(I5
I25
I2
tp939
I2
s(I5
I20
I9
tp940
I9
s(I7
I15
I0
tp941
I24
s(I14
I17
I5
tp942
I403
s(I8
I16
I3
tp943
I3
s(I5
I6
I8
tp944
I1
s(I10
I15
I5
tp945
I436
s(I16
I20
I0
tp946
I3
s(I4
I18
I9
tp947
I3
s(I6
I15
I6
tp948
I1
s(I11
I11
I2
tp949
I1
s(I4
I11
I3
tp950
I4
s(I9
I15
I5
tp951
I38
s(I7
I19
I5
tp952
I452
s(I12
I23
I3
tp953
I6
s(I14
I13
I0
tp954
I1
s(I11
I12
I8
tp955
I3
s(I14
I6
I9
tp956
I5
s(I5
I26
I3
tp957
I3
s(I16
I16
I5
tp958
I883
s(I4
I22
I2
tp959
I1
s(I15
I13
I3
tp960
I4
s(I8
I4
I8
tp961
I1
s(I14
I16
I6
tp962
I1343
s(I5
I12
I6
tp963
I2
s(I9
I11
I2
tp964
I1
s(I7
I9
I9
tp965
I1
s(I6
I19
I6
tp966
I418
s(I4
I10
I0
tp967
I3
s(I3
I15
I8
tp968
I10
s(I12
I22
I0
tp969
I3
s(I11
I19
I8
tp970
I868
s(I13
I7
I9
tp971
I17
s(I4
I21
I3
tp972
I2
s(I9
I26
I0
tp973
I2
s(I8
I14
I2
tp974
I2
s(I7
I24
I9
tp975
I4
s(I6
I10
I6
tp976
I8
s(I8
I25
I8
tp977
I393
s(I5
I13
I5
tp978
I7
s(I11
I20
I6
tp979
I21
s(I16
I18
I2
tp980
I1
s(I7
I14
I8
tp981
I1
s(I15
I16
I5
tp982
I872
s(I6
I9
I0
tp983
I15
s(I6
I18
I9
tp984
I380
s(I8
I17
I5
tp985
I480
s(I10
I19
I3
tp986
I2
s(I3
I12
I9
tp987
I1
s(I7
I17
I3
tp988
I1
s(I11
I16
I9
tp989
I479
s(I10
I8
I5
tp990
I7
s(I10
I5
I6
tp991
I12
s(I8
I13
I3
tp992
I1
s(I12
I11
I0
tp993
I2
s(I11
I24
I6
tp994
I24
s(I13
I15
I3
tp995
I5
s(I15
I17
I2
tp996
I2
s(I15
I12
I5
tp997
I408
s(I6
I8
I3
tp998
I3
s(I5
I16
I0
tp999
I2
s(I4
I8
I6
tp1000
I10
s(I10
I25
I5
tp1001
I1
s(I7
I22
I2
tp1002
I5
s(I3
I23
I8
tp1003
I21
s(I14
I14
I5
tp1004
I433
s(I11
I17
I6
tp1005
I848
s(I16
I8
I9
tp1006
I6
s(I3
I14
I0
tp1007
I5
s(I13
I19
I8
tp1008
I12
s(I12
I10
I3
tp1009
I1
s(I8
I23
I6
tp1010
I7
s(I11
I18
I0
tp1011
I18
s(I10
I3
I9
tp1012
I6
s(I4
I12
I3
tp1013
I1
s(I13
I5
I9
tp1014
I5
s(I13
I16
I2
tp1015
I1
s(I15
I22
I3
tp1016
I1
s(I9
I19
I9
tp1017
I476
s(I3
I19
I5
tp1018
I11
s(I6
I11
I2
tp1019
I1
s(I8
I26
I0
tp1020
I2
s(I5
I17
I3
tp1021
I1
s(I10
I24
I6
tp1022
I393
s(I10
I21
I5
tp1023
I23
s(I9
I11
I9
tp1024
I3
s(I6
I16
I9
tp1025
I8
s(I5
I8
I9
tp1026
I12
s(I5
I3
I0
tp1027
I1
s(I10
I10
I3
tp1028
I5
s(I4
I22
I6
tp1029
I475
s(I13
I20
I9
tp1030
I11
s(I8
I11
I5
tp1031
I2
s(I6
I23
I5
tp1032
I10
s(I8
I22
I5
tp1033
I10
s(I11
I19
I3
tp1034
I7
s(I12
I18
I9
tp1035
I919
s(I5
I7
I5
tp1036
I1
s(I4
I23
I8
tp1037
I826
s(I10
I20
I6
tp1038
I436
s(I9
I4
I8
tp1039
I2
s(I13
I14
I5
tp1040
I417
s(I7
I20
I0
tp1041
I3
s(I8
I7
I0
tp1042
I5
s(I6
I9
I9
tp1043
I1
s(I6
I19
I8
tp1044
I10
s(I10
I13
I2
tp1045
I1
s(I7
I10
I3
tp1046
I3
s(I15
I11
I5
tp1047
I2
s(I8
I10
I6
tp1048
I3
s(I6
I22
I2
tp1049
I9
s(I11
I16
I2
tp1050
I3
s(I13
I18
I0
tp1051
I9
s(I12
I11
I9
tp1052
I18
s(I12
I17
I8
tp1053
I471
s(I5
I19
I5
tp1054
I1
s(I4
I13
I5
tp1055
I12
s(I10
I26
I0
tp1056
I1
s(I15
I17
I9
tp1057
I407
s(I14
I11
I6
tp1058
I1
s(I5
I10
I5
tp1059
I1
s(I9
I9
I9
tp1060
I10
s(I3
I13
I5
tp1061
I2
s(I7
I11
I0
tp1062
I10
s(I6
I17
I3
tp1063
I4
s(I8
I20
I3
tp1064
I18
s(I5
I23
I2
tp1065
I5
s(I14
I18
I6
tp1066
I20
s(I3
I9
I2
tp1067
I1
s(I9
I24
I9
tp1068
I7
s(I15
I22
I8
tp1069
I10
s(I9
I19
I0
tp1070
I1
s(I8
I5
I2
tp1071
I1
s(I12
I19
I3
tp1072
I6
s(I14
I17
I0
tp1073
I2
s(I8
I16
I8
tp1074
I414
s(I14
I10
I9
tp1075
I19
s(I10
I15
I0
tp1076
I8
s(I6
I16
I0
tp1077
I3
s(I8
I19
I2
tp1078
I6
s(I4
I11
I6
tp1079
I4
s(I13
I9
I5
tp1080
I1
s(I13
I20
I6
tp1081
I15
s(I3
I24
I0
tp1082
I3
s(I16
I10
I9
tp1083
I34
s(I0
I0
I0
tp1084
I1
s(I12
I5
I9
tp1085
I10
s(I12
I18
I0
tp1086
I11
s(I14
I16
I3
tp1087
I5
s(I11
I23
I8
tp1088
I378
s(I7
I9
I6
tp1089
I1
s(I9
I17
I9
tp1090
I474
s(I8
I7
I9
tp1091
I6
s(I11
I5
I9
tp1092
I17
s(I4
I10
I5
tp1093
I5
s(I16
I22
I2
tp1094
I1
s(I7
I10
I8
tp1095
I7
s(I13
I21
I5
tp1096
I12
s(I6
I13
I0
tp1097
I8
s(I5
I22
I6
tp1098
I102
s(I4
I24
I9
tp1099
I6
s(I3
I7
I0
tp1100
I2
s(I14
I19
I2
tp1101
I1
s(I11
I20
I9
tp1102
I414
s(I9
I20
I0
tp1103
I5
s(I9
I4
I6
tp1104
I2
s(I3
I8
I6
tp1105
I1
s(I9
I18
I8
tp1106
I423
s(I14
I22
I8
tp1107
I381
s(I14
I8
I9
tp1108
I17
s(I16
I21
I3
tp1109
I1
s(I10
I6
I9
tp1110
I6
s(I4
I6
I5
tp1111
I2
s(I10
I19
I6
tp1112
I1260
s(I9
I9
I0
tp1113
I11
s(I7
I17
I8
tp1114
I385
s(I8
I10
I8
tp1115
I4
s(I11
I7
I6
tp1116
I7
s(I14
I15
I5
tp1117
I900
s(I7
I7
I9
tp1118
I4
s(I11
I25
I8
tp1119
I1
s(I8
I13
I6
tp1120
I1
s(I12
I16
I6
tp1121
I431
s(I13
I15
I8
tp1122
I930
s(I3
I9
I9
tp1123
I1
s(I9
I24
I6
tp1124
I367
s(I14
I17
I9
tp1125
I856
s(I14
I11
I8
tp1126
I1
s(I11
I22
I0
tp1127
I4
s(I16
I15
I5
tp1128
I2730
s(I10
I25
I8
tp1129
I1
s(I7
I22
I9
tp1130
I421
s(I8
I9
I9
tp1131
I4
s(I6
I15
I2
tp1132
I2
s(I12
I20
I3
tp1133
I1
s(I14
I14
I2
tp1134
I1
s(I9
I20
I5
tp1135
I499
s(I6
I20
I9
tp1136
I793
s(I6
I25
I2
tp1137
I1
s(I5
I15
I0
tp1138
I8
s(I10
I22
I6
tp1139
I9
s(I13
I16
I9
tp1140
I855
s(I7
I12
I5
tp1141
I1
s(I9
I25
I5
tp1142
I1
s(I16
I14
I6
tp1143
I912
s(I4
I15
I2
tp1144
I2
s(I16
I19
I5
tp1145
I423
s(I13
I15
I2
tp1146
I2
s(I10
I21
I0
tp1147
I6
s(I15
I19
I0
tp1148
I2
s(I8
I8
I6
tp1149
I2
s(I8
I18
I8
tp1150
I477
s(I10
I10
I8
tp1151
I10
s(I7
I16
I0
tp1152
I3
s(I9
I21
I6
tp1153
I21
s(I8
I11
I0
tp1154
I13
s(I6
I13
I9
tp1155
I12
s(I6
I23
I8
tp1156
I5
s(I4
I24
I0
tp1157
I9
s(I11
I20
I2
tp1158
I1
s(I5
I18
I5
tp1159
I2
s(I16
I18
I6
tp1160
I39
s(I10
I20
I3
tp1161
I6
s(I13
I14
I0
tp1162
I7
s(I8
I17
I9
tp1163
I431
s(I10
I13
I9
tp1164
I3
s(I13
I13
I2
tp1165
I2
s(I3
I12
I5
tp1166
I6
s(I7
I10
I6
tp1167
I10
s(I12
I21
I5
tp1168
I12
s(I9
I13
I9
tp1169
I2
s(I7
I7
I0
tp1170
I7
s(I6
I21
I3
tp1171
I14
s(I8
I24
I3
tp1172
I1
s(I2
I14
I8
tp1173
I6
s(I11
I21
I5
tp1174
I11
s(I16
I12
I0
tp1175
I444
s(I4
I13
I0
tp1176
I11
s(I10
I23
I2
tp1177
I2
s(I15
I17
I6
tp1178
I477
s(I6
I7
I6
tp1179
I4
s(I12
I25
I0
tp1180
I1
s(I10
I18
I8
tp1181
I484
s(I7
I11
I5
tp1182
I1
s(I15
I18
I8
tp1183
I21
s(I7
I22
I6
tp1184
I396
s(I9
I23
I0
tp1185
I2
s(I8
I9
I2
tp1186
I2
s(I12
I15
I3
tp1187
I3
s(I14
I21
I0
tp1188
I1
s(I8
I19
I0
tp1189
I2
s(I11
I17
I2
tp1190
I1
s(I10
I11
I0
tp1191
I7
s(I16
I8
I5
tp1192
I3
s(I10
I4
I9
tp1193
I2
s(I15
I21
I3
tp1194
I5
s(I6
I20
I0
tp1195
I3
s(I5
I20
I3
tp1196
I3
s(I16
I16
I8
tp1197
I900
s(I7
I26
I5
tp1198
I30
s(I9
I19
I5
tp1199
I447
s(I8
I5
I5
tp1200
I1
s(I3
I19
I9
tp1201
I1
s(I6
I11
I6
tp1202
I3
s(I14
I15
I9
tp1203
I928
s(I5
I11
I9
tp1204
I7
s(I16
I14
I9
tp1205
I1410
s(I10
I24
I2
tp1206
I1
s(I10
I21
I9
tp1207
I13
s(I13
I13
I8
tp1208
I400
s(I7
I23
I5
tp1209
I7
s(I12
I14
I0
tp1210
I7
s(I14
I20
I3
tp1211
I1
s(I5
I8
I5
tp1212
I9
s(I10
I7
I8
tp1213
I5
s(I9
I21
I9
tp1214
I39
s(I11
I12
I6
tp1215
I3
s(I6
I24
I8
tp1216
I5
s(I5
I21
I0
tp1217
I2
s(I12
I18
I5
tp1218
I871
s(I8
I25
I5
tp1219
I391
s(I5
I12
I8
tp1220
I4
s(I2
I15
I0
tp1221
I3
s(I16
I13
I8
tp1222
I1396
s(I3
I11
I0
tp1223
I2
s(I15
I14
I9
tp1224
I456
s(I9
I22
I8
tp1225
I3
s(I12
I8
I9
tp1226
I18
s(I6
I22
I6
tp1227
I869
s(I14
I12
I9
tp1228
I18
s(I11
I16
I6
tp1229
I480
s(I16
I9
I3
tp1230
I1
s(I9
I13
I0
tp1231
I5
s(I7
I13
I8
tp1232
I1
s(I15
I20
I5
tp1233
I10
s(I5
I24
I0
tp1234
I1
s(I5
I19
I9
tp1235
I10
s(I16
I18
I8
tp1236
I41
s(I9
I18
I3
tp1237
I5
s(I14
I22
I5
tp1238
I10
s(I6
I18
I3
tp1239
I4
s(I10
I12
I5
tp1240
I7
s(I3
I22
I5
tp1241
I407
s(I12
I15
I8
tp1242
I917
s(I15
I7
I9
tp1243
I5
s(I14
I21
I9
tp1244
I9
s(I14
I15
I8
tp1245
I44
s(I11
I10
I0
tp1246
I1
s(I11
I17
I9
tp1247
I444
s(I4
I20
I6
tp1248
I2
s(I7
I18
I9
tp1249
I486
s(I8
I13
I9
tp1250
I2
s(I7
I25
I0
tp1251
I1
s(I14
I18
I2
tp1252
I1
s(I5
I25
I3
tp1253
I3
s(I5
I20
I8
tp1254
I2
s(I16
I17
I9
tp1255
I960
s(I4
I23
I0
tp1256
I6
s(I5
I11
I0
tp1257
I7
s(I4
I8
I8
tp1258
I4
s(I15
I18
I6
tp1259
I15
s(I13
I23
I0
tp1260
I5
s(I3
I23
I6
tp1261
I400
s(I6
I15
I5
tp1262
I1
s(I8
I19
I6
tp1263
I849
s(I11
I11
I3
tp1264
I1
s(I4
I11
I2
tp1265
I1
s(I10
I17
I0
tp1266
I18
s(I9
I15
I6
tp1267
I402
s(I8
I22
I8
tp1268
I25
s(I5
I15
I5
tp1269
I1
s(I16
I16
I6
tp1270
I508
s(I4
I22
I3
tp1271
I4
s(I7
I12
I0
tp1272
I8
s(I8
I15
I0
tp1273
I24
s(I8
I4
I9
tp1274
I1
s(I2
I15
I9
tp1275
I1
s(I4
I15
I9
tp1276
I1
s(I16
I19
I0
tp1277
I2
s(I9
I11
I3
tp1278
I1
s(I15
I19
I5
tp1279
I16
s(I15
I14
I6
tp1280
I482
s(I6
I14
I2
tp1281
I1
s(I6
I19
I5
tp1282
I840
s(I8
I18
I5
tp1283
I436
s(I10
I16
I3
tp1284
I4
s(I3
I15
I9
tp1285
I16
s(I8
I21
I9
tp1286
I870
s(I11
I19
I9
tp1287
I882
s(I10
I9
I9
tp1288
I3
s(I8
I14
I3
tp1289
I1
s(I7
I24
I8
tp1290
I8
s(I14
I19
I6
tp1291
I11
s(I11
I20
I5
tp1292
I21
s(I16
I18
I3
tp1293
I1
s(I4
I16
I8
tp1294
I2
s(I15
I15
I5
tp1295
I1326
s(I3
I21
I0
tp1296
I1
s(I10
I19
I2
tp1297
I2
s(I12
I21
I0
tp1298
I3
s(I11
I10
I9
tp1299
I18
s(I11
I16
I8
tp1300
I479
s(I9
I27
I0
tp1301
I1
s(I8
I13
I2
tp1302
I1
s(I6
I21
I6
tp1303
I443
s(I5
I14
I3
tp1304
I2
s(I11
I24
I5
tp1305
I24
s(I16
I17
I2
tp1306
I1
s(I4
I23
I9
tp1307
I492
s(I7
I15
I8
tp1308
I1
s(I15
I17
I3
tp1309
I2
s(I6
I7
I9
tp1310
I3
s(I6
I8
I0
tp1311
I13
s(I10
I18
I5
tp1312
I1223
s(I3
I23
I9
tp1313
I3
s(I14
I14
I6
tp1314
I435
s(I10
I17
I9
tp1315
I438
s(I3
I14
I3
tp1316
I1
s(I13
I19
I9
tp1317
I18
s(I15
I21
I8
tp1318
I390
s(I8
I12
I5
tp1319
I10
s(I6
I20
I5
tp1320
I487
s(I6
I25
I6
tp1321
I3
s(I11
I18
I3
tp1322
I6
s(I10
I3
I8
tp1323
I2
s(I13
I16
I5
tp1324
I856
s(I7
I12
I9
tp1325
I5
s(I15
I22
I2
tp1326
I1
s(I16
I14
I2
tp1327
I1
s(I5
I17
I0
tp1328
I4
s(I13
I13
I5
tp1329
I11
s(I6
I5
I0
tp1330
I4
s(I5
I8
I8
tp1331
I11
s(I10
I7
I3
tp1332
I5
s(I3
I15
I0
tp1333
I8
s(I7
I5
I3
tp1334
I1
s(I13
I20
I8
tp1335
I14
s(I15
I10
I9
tp1336
I21
s(I6
I24
I5
tp1337
I15
s(I11
I19
I0
tp1338
I16
s(I13
I17
I6
tp1339
I458
s(I12
I4
I9
tp1340
I5
s(I8
I25
I0
tp1341
I2
s(I16
I13
I3
tp1342
I5
s(I4
I14
I5
tp1343
I10
s(I8
I7
I3
tp1344
I2
s(I6
I9
I8
tp1345
I2
s(I5
I4
I0
tp1346
I3
s(I7
I10
I2
tp1347
I1
s(I9
I22
I3
tp1348
I2
s(I6
I22
I3
tp1349
I18
s(I9
I13
I5
tp1350
I4
s(I15
I20
I0
tp1351
I2
s(I11
I14
I0
tp1352
I8
s(I16
I7
I5
tp1353
I1
s(I5
I19
I6
tp1354
I3
s(I10
I23
I6
tp1355
I9
s(I7
I21
I0
tp1356
I15
s(I8
I6
I0
tp1357
I2
s(I14
I22
I2
tp1358
I1
s(I12
I19
I6
tp1359
I14
s(I16
I21
I9
tp1360
I7
s(I4
I19
I0
tp1361
I8
s(I8
I9
I6
tp1362
I10
s(I5
I23
I3
tp1363
I8
s(I13
I19
I0
tp1364
I5
s(I12
I16
I8
tp1365
I439
s(I11
I15
I3
tp1366
I5
s(I16
I11
I5
tp1367
I436
s(I9
I6
I9
tp1368
I6
s(I9
I24
I8
tp1369
I369
s(I12
I6
I9
tp1370
I17
s(I12
I19
I2
tp1371
I2
s(I14
I17
I3
tp1372
I5
s(I8
I16
I9
tp1373
I410
s(I4
I18
I3
tp1374
I2
s(I7
I8
I0
tp1375
I8
s(I13
I23
I5
tp1376
I1
s(I9
I16
I5
tp1377
I29
s(I4
I11
I9
tp1378
I3
s(I16
I23
I0
tp1379
I1
s(I9
I15
I3
tp1380
I1
s(I12
I23
I9
tp1381
I373
s(I14
I13
I6
tp1382
I415
s(I16
I10
I6
tp1383
I14
s(I14
I16
I0
tp1384
I4
s(I11
I23
I9
tp1385
I8
s(I10
I14
I0
tp1386
I6
s(I9
I17
I6
tp1387
I465
s(I8
I7
I8
tp1388
I6
s(I12
I13
I5
tp1389
I2
s(I6
I19
I0
tp1390
I4
s(I5
I9
I2
tp1391
I1
s(I5
I4
I9
tp1392
I2
s(I9
I8
I2
tp1393
I1
s(I13
I21
I2
tp1394
I1
s(I6
I13
I3
tp1395
I2
s(I14
I12
I5
tp1396
I1
s(I5
I22
I5
tp1397
I1200
s(I15
I20
I9
tp1398
I13
s(I12
I17
I0
tp1399
I7
s(I11
I14
I9
tp1400
I1
s(I11
I20
I8
tp1401
I23
s(I7
I14
I6
tp1402
I2
s(I14
I22
I9
tp1403
I397
s(I4
I6
I2
tp1404
I2
s(I10
I19
I5
tp1405
I585
s(I4
I19
I9
tp1406
I13
s(I7
I11
I8
tp1407
I2
s(I13
I22
I3
tp1408
I4
s(I7
I17
I9
tp1409
I394
s(I8
I10
I9
tp1410
I9
s(I6
I12
I0
tp1411
I8
s(I4
I20
I2
tp1412
I2
s(I7
I18
I5
tp1413
I483
s(I8
I13
I5
tp1414
I1
s(I14
I7
I9
tp1415
I10
s(I11
I24
I0
tp1416
I3
s(I13
I15
I9
tp1417
I924
s(I7
I15
I5
tp1418
I1
s(I14
I17
I8
tp1419
I471
s(I8
I16
I0
tp1420
I14
s(I15
I21
I0
tp1421
I1
s(I16
I20
I5
tp1422
I407
s(I4
I5
I3
tp1423
I1
s(I10
I18
I2
tp1424
I1
s(I9
I10
I0
tp1425
I13
s(I7
I8
I9
tp1426
I3
s(I7
I22
I8
tp1427
I417
s(I8
I9
I8
tp1428
I10
s(I14
I14
I3
tp1429
I6
s(I3
I14
I6
tp1430
I17
s(I7
I19
I6
tp1431
I424
s(I12
I10
I5
tp1432
I1
s(I12
I23
I6
tp1433
I19
s.